; Listing generated by Microsoft (R) Optimizing Compiler Version 17.00.61030.0 

	TITLE	C:\Users\jack\Documents\Visual Studio 2012\Projects\Battelz\Main\Source.cpp
	.686P
	.XMM
	include listing.inc
	.model	flat

INCLUDELIB MSVCRTD
INCLUDELIB OLDNAMES

PUBLIC	?max_exponent@?$numeric_limits@O@std@@2HB	; std::numeric_limits<long double>::max_exponent
PUBLIC	?value@?$_Gcd@$0PECEA@$00@std@@2_JB		; std::_Gcd<1000000,1>::value
PUBLIC	?max_exponent10@?$numeric_limits@O@std@@2HB	; std::numeric_limits<long double>::max_exponent10
PUBLIC	?min_exponent@?$numeric_limits@O@std@@2HB	; std::numeric_limits<long double>::min_exponent
PUBLIC	?num@?$ratio@$0PECEA@$00@std@@2_JB		; std::ratio<1000000,1>::num
PUBLIC	?den@?$ratio@$0PECEA@$00@std@@2_JB		; std::ratio<1000000,1>::den
PUBLIC	?min_exponent10@?$numeric_limits@O@std@@2HB	; std::numeric_limits<long double>::min_exponent10
PUBLIC	?value@?$_Sizeof@HU_Nil@std@@U12@U12@U12@U12@U12@U12@@std@@2IB ; std::_Sizeof<int,std::_Nil,std::_Nil,std::_Nil,std::_Nil,std::_Nil,std::_Nil,std::_Nil>::value
PUBLIC	?value@?$_Is_duration@V?$duration@_JU?$ratio@$00$0DLJKMKAA@@std@@@chrono@std@@@chrono@std@@2_NB ; std::chrono::_Is_duration<std::chrono::duration<__int64,std::ratio<1,1000000000> > >::value
PUBLIC	?value@?$integral_constant@H$0A@@std@@2HB	; std::integral_constant<int,0>::value
PUBLIC	?value@?$_Is_ratio@U?$ratio@$00$0DLJKMKAA@@std@@@chrono@std@@2_NB ; std::chrono::_Is_ratio<std::ratio<1,1000000000> >::value
PUBLIC	?value@?$_Abs@$0GE@@std@@2_JB			; std::_Abs<100>::value
PUBLIC	?value@?$_GcdX@$00$0DLJKMKAA@@std@@2_JB		; std::_GcdX<1,1000000000>::value
PUBLIC	?value@?$_Abs@$0DLJKMKAA@@std@@2_JB		; std::_Abs<1000000000>::value
PUBLIC	?value@?$_Gcd@$00$0DLJKMKAA@@std@@2_JB		; std::_Gcd<1,1000000000>::value
PUBLIC	?num@?$ratio@$00$0DLJKMKAA@@std@@2_JB		; std::ratio<1,1000000000>::num
PUBLIC	?value@?$_Is_duration@V?$duration@_JU?$ratio@$00$00@std@@@chrono@std@@@chrono@std@@2_NB ; std::chrono::_Is_duration<std::chrono::duration<__int64,std::ratio<1,1> > >::value
PUBLIC	?den@?$ratio@$00$0DLJKMKAA@@std@@2_JB		; std::ratio<1,1000000000>::den
PUBLIC	?value@?$_GcdX@$0GE@$0A@@std@@2_JB		; std::_GcdX<100,0>::value
PUBLIC	?value@?$_GcdX@$0DLJKMKAA@$0GE@@std@@2_JB	; std::_GcdX<1000000000,100>::value
PUBLIC	?_STATE_CLEAR@_CancellationTokenRegistration@details@Concurrency@@0JB ; Concurrency::details::_CancellationTokenRegistration::_STATE_CLEAR
PUBLIC	?value@?$_GcdX@$0GE@$0DLJKMKAA@@std@@2_JB	; std::_GcdX<100,1000000000>::value
PUBLIC	?_STATE_DEFER_DELETE@_CancellationTokenRegistration@details@Concurrency@@0JB ; Concurrency::details::_CancellationTokenRegistration::_STATE_DEFER_DELETE
PUBLIC	?_STATE_SYNCHRONIZE@_CancellationTokenRegistration@details@Concurrency@@0JB ; Concurrency::details::_CancellationTokenRegistration::_STATE_SYNCHRONIZE
PUBLIC	?_STATE_CALLED@_CancellationTokenRegistration@details@Concurrency@@0JB ; Concurrency::details::_CancellationTokenRegistration::_STATE_CALLED
PUBLIC	?value@?$_Gcd@$0GE@$0DLJKMKAA@@std@@2_JB	; std::_Gcd<100,1000000000>::value
PUBLIC	?_G1@?$_Ratio_multiply2@U?$ratio@$0GE@$00@std@@U?$ratio@$00$0DLJKMKAA@@2@@std@@2_JB ; std::_Ratio_multiply2<std::ratio<100,1>,std::ratio<1,1000000000> >::_G1
PUBLIC	?value@?$_Abs@$00@std@@2_JB			; std::_Abs<1>::value
PUBLIC	?_G1@?$_Ratio_multiply2@U?$ratio@$00$0DLJKMKAA@@std@@U?$ratio@$00$00@2@@std@@2_JB ; std::_Ratio_multiply2<std::ratio<1,1000000000>,std::ratio<1,1> >::_G1
PUBLIC	?_G2@?$_Ratio_multiply2@U?$ratio@$00$0DLJKMKAA@@std@@U?$ratio@$00$00@2@@std@@2_JB ; std::_Ratio_multiply2<std::ratio<1,1000000000>,std::ratio<1,1> >::_G2
PUBLIC	?value@?$_GcdX@$00$0A@@std@@2_JB		; std::_GcdX<1,0>::value
PUBLIC	?value@?$_GcdX@$00$00@std@@2_JB			; std::_GcdX<1,1>::value
PUBLIC	?value@?$_Gcd@$00$00@std@@2_JB			; std::_Gcd<1,1>::value
PUBLIC	?_G2@?$_Ratio_multiply2@U?$ratio@$0GE@$00@std@@U?$ratio@$00$0DLJKMKAA@@2@@std@@2_JB ; std::_Ratio_multiply2<std::ratio<100,1>,std::ratio<1,1000000000> >::_G2
PUBLIC	?has_denorm@_Num_base@std@@2W4float_denorm_style@2@B ; std::_Num_base::has_denorm
PUBLIC	?has_denorm_loss@_Num_base@std@@2_NB		; std::_Num_base::has_denorm_loss
PUBLIC	?has_infinity@_Num_base@std@@2_NB		; std::_Num_base::has_infinity
PUBLIC	?has_quiet_NaN@_Num_base@std@@2_NB		; std::_Num_base::has_quiet_NaN
PUBLIC	?has_signaling_NaN@_Num_base@std@@2_NB		; std::_Num_base::has_signaling_NaN
PUBLIC	?is_bounded@_Num_base@std@@2_NB			; std::_Num_base::is_bounded
PUBLIC	?is_exact@_Num_base@std@@2_NB			; std::_Num_base::is_exact
PUBLIC	?is_iec559@_Num_base@std@@2_NB			; std::_Num_base::is_iec559
PUBLIC	?is_monotonic@system_clock@chrono@std@@2_NB	; std::chrono::system_clock::is_monotonic
PUBLIC	?is_steady@system_clock@chrono@std@@2_NB	; std::chrono::system_clock::is_steady
PUBLIC	?is_integer@_Num_base@std@@2_NB			; std::_Num_base::is_integer
PUBLIC	?is_modulo@_Num_base@std@@2_NB			; std::_Num_base::is_modulo
PUBLIC	?is_signed@_Num_base@std@@2_NB			; std::_Num_base::is_signed
PUBLIC	?is_specialized@_Num_base@std@@2_NB		; std::_Num_base::is_specialized
PUBLIC	?tinyness_before@_Num_base@std@@2_NB		; std::_Num_base::tinyness_before
PUBLIC	?value@?$_Always_false@_J@std@@2_NB		; std::_Always_false<__int64>::value
PUBLIC	?traps@_Num_base@std@@2_NB			; std::_Num_base::traps
PUBLIC	?round_style@_Num_base@std@@2W4float_round_style@2@B ; std::_Num_base::round_style
PUBLIC	?_G1@?$_Ratio_multiply2@U?$ratio@$00$00@std@@U?$ratio@$0DLJKMKAA@$00@2@@std@@2_JB ; std::_Ratio_multiply2<std::ratio<1,1>,std::ratio<1000000000,1> >::_G1
PUBLIC	?digits@_Num_base@std@@2HB			; std::_Num_base::digits
PUBLIC	?collate@?$_Locbase@H@std@@2HB			; std::_Locbase<int>::collate
PUBLIC	?digits10@_Num_base@std@@2HB			; std::_Num_base::digits10
PUBLIC	?ctype@?$_Locbase@H@std@@2HB			; std::_Locbase<int>::ctype
PUBLIC	?monetary@?$_Locbase@H@std@@2HB			; std::_Locbase<int>::monetary
PUBLIC	?max_digits10@_Num_base@std@@2HB		; std::_Num_base::max_digits10
PUBLIC	?value@?$_GcdX@$0DLJKMKAA@$00@std@@2_JB		; std::_GcdX<1000000000,1>::value
PUBLIC	?numeric@?$_Locbase@H@std@@2HB			; std::_Locbase<int>::numeric
PUBLIC	?max_exponent@_Num_base@std@@2HB		; std::_Num_base::max_exponent
PUBLIC	?time@?$_Locbase@H@std@@2HB			; std::_Locbase<int>::time
PUBLIC	?messages@?$_Locbase@H@std@@2HB			; std::_Locbase<int>::messages
PUBLIC	?max_exponent10@_Num_base@std@@2HB		; std::_Num_base::max_exponent10
PUBLIC	?all@?$_Locbase@H@std@@2HB			; std::_Locbase<int>::all
PUBLIC	?value@?$_Gcd@$0DLJKMKAA@$00@std@@2_JB		; std::_Gcd<1000000000,1>::value
PUBLIC	?min_exponent@_Num_base@std@@2HB		; std::_Num_base::min_exponent
PUBLIC	?none@?$_Locbase@H@std@@2HB			; std::_Locbase<int>::none
PUBLIC	?min_exponent10@_Num_base@std@@2HB		; std::_Num_base::min_exponent10
PUBLIC	?radix@_Num_base@std@@2HB			; std::_Num_base::radix
PUBLIC	?_G2@?$_Ratio_multiply2@U?$ratio@$00$00@std@@U?$ratio@$0DLJKMKAA@$00@2@@std@@2_JB ; std::_Ratio_multiply2<std::ratio<1,1>,std::ratio<1000000000,1> >::_G2
PUBLIC	?is_bounded@_Num_int_base@std@@2_NB		; std::_Num_int_base::is_bounded
PUBLIC	?is_exact@_Num_int_base@std@@2_NB		; std::_Num_int_base::is_exact
PUBLIC	?is_integer@_Num_int_base@std@@2_NB		; std::_Num_int_base::is_integer
PUBLIC	?is_modulo@_Num_int_base@std@@2_NB		; std::_Num_int_base::is_modulo
PUBLIC	?skipws@?$_Iosb@H@std@@2W4_Fmtflags@12@B	; std::_Iosb<int>::skipws
PUBLIC	?num@?$ratio@$0DLJKMKAA@$00@std@@2_JB		; std::ratio<1000000000,1>::num
PUBLIC	?unitbuf@?$_Iosb@H@std@@2W4_Fmtflags@12@B	; std::_Iosb<int>::unitbuf
PUBLIC	?is_specialized@_Num_int_base@std@@2_NB		; std::_Num_int_base::is_specialized
PUBLIC	?den@?$ratio@$0DLJKMKAA@$00@std@@2_JB		; std::ratio<1000000000,1>::den
PUBLIC	?radix@_Num_int_base@std@@2HB			; std::_Num_int_base::radix
PUBLIC	?uppercase@?$_Iosb@H@std@@2W4_Fmtflags@12@B	; std::_Iosb<int>::uppercase
PUBLIC	?showbase@?$_Iosb@H@std@@2W4_Fmtflags@12@B	; std::_Iosb<int>::showbase
PUBLIC	?showpoint@?$_Iosb@H@std@@2W4_Fmtflags@12@B	; std::_Iosb<int>::showpoint
PUBLIC	?showpos@?$_Iosb@H@std@@2W4_Fmtflags@12@B	; std::_Iosb<int>::showpos
PUBLIC	?has_denorm@_Num_float_base@std@@2W4float_denorm_style@2@B ; std::_Num_float_base::has_denorm
PUBLIC	?left@?$_Iosb@H@std@@2W4_Fmtflags@12@B		; std::_Iosb<int>::left
PUBLIC	?has_denorm_loss@_Num_float_base@std@@2_NB	; std::_Num_float_base::has_denorm_loss
PUBLIC	?_G1@?$_Ratio_multiply2@U?$ratio@$00$00@std@@U12@@std@@2_JB ; std::_Ratio_multiply2<std::ratio<1,1>,std::ratio<1,1> >::_G1
PUBLIC	?right@?$_Iosb@H@std@@2W4_Fmtflags@12@B		; std::_Iosb<int>::right
PUBLIC	?_G2@?$_Ratio_multiply2@U?$ratio@$00$00@std@@U12@@std@@2_JB ; std::_Ratio_multiply2<std::ratio<1,1>,std::ratio<1,1> >::_G2
PUBLIC	?has_infinity@_Num_float_base@std@@2_NB		; std::_Num_float_base::has_infinity
PUBLIC	?internal@?$_Iosb@H@std@@2W4_Fmtflags@12@B	; std::_Iosb<int>::internal
PUBLIC	?has_quiet_NaN@_Num_float_base@std@@2_NB	; std::_Num_float_base::has_quiet_NaN
PUBLIC	?dec@?$_Iosb@H@std@@2W4_Fmtflags@12@B		; std::_Iosb<int>::dec
PUBLIC	?has_signaling_NaN@_Num_float_base@std@@2_NB	; std::_Num_float_base::has_signaling_NaN
PUBLIC	?oct@?$_Iosb@H@std@@2W4_Fmtflags@12@B		; std::_Iosb<int>::oct
PUBLIC	?is_bounded@_Num_float_base@std@@2_NB		; std::_Num_float_base::is_bounded
PUBLIC	?hex@?$_Iosb@H@std@@2W4_Fmtflags@12@B		; std::_Iosb<int>::hex
PUBLIC	?is_exact@_Num_float_base@std@@2_NB		; std::_Num_float_base::is_exact
PUBLIC	?scientific@?$_Iosb@H@std@@2W4_Fmtflags@12@B	; std::_Iosb<int>::scientific
PUBLIC	?is_iec559@_Num_float_base@std@@2_NB		; std::_Num_float_base::is_iec559
PUBLIC	?fixed@?$_Iosb@H@std@@2W4_Fmtflags@12@B		; std::_Iosb<int>::fixed
PUBLIC	?is_integer@_Num_float_base@std@@2_NB		; std::_Num_float_base::is_integer
PUBLIC	?hexfloat@?$_Iosb@H@std@@2W4_Fmtflags@12@B	; std::_Iosb<int>::hexfloat
PUBLIC	?is_modulo@_Num_float_base@std@@2_NB		; std::_Num_float_base::is_modulo
PUBLIC	?boolalpha@?$_Iosb@H@std@@2W4_Fmtflags@12@B	; std::_Iosb<int>::boolalpha
PUBLIC	?is_signed@_Num_float_base@std@@2_NB		; std::_Num_float_base::is_signed
PUBLIC	?_Stdio@?$_Iosb@H@std@@2W4_Fmtflags@12@B	; std::_Iosb<int>::_Stdio
PUBLIC	?is_specialized@_Num_float_base@std@@2_NB	; std::_Num_float_base::is_specialized
PUBLIC	?adjustfield@?$_Iosb@H@std@@2W4_Fmtflags@12@B	; std::_Iosb<int>::adjustfield
PUBLIC	?tinyness_before@_Num_float_base@std@@2_NB	; std::_Num_float_base::tinyness_before
PUBLIC	?basefield@?$_Iosb@H@std@@2W4_Fmtflags@12@B	; std::_Iosb<int>::basefield
PUBLIC	?traps@_Num_float_base@std@@2_NB		; std::_Num_float_base::traps
PUBLIC	?floatfield@?$_Iosb@H@std@@2W4_Fmtflags@12@B	; std::_Iosb<int>::floatfield
PUBLIC	?round_style@_Num_float_base@std@@2W4float_round_style@2@B ; std::_Num_float_base::round_style
PUBLIC	?radix@_Num_float_base@std@@2HB			; std::_Num_float_base::radix
PUBLIC	?goodbit@?$_Iosb@H@std@@2W4_Iostate@12@B	; std::_Iosb<int>::goodbit
PUBLIC	?eofbit@?$_Iosb@H@std@@2W4_Iostate@12@B		; std::_Iosb<int>::eofbit
PUBLIC	?failbit@?$_Iosb@H@std@@2W4_Iostate@12@B	; std::_Iosb<int>::failbit
PUBLIC	?badbit@?$_Iosb@H@std@@2W4_Iostate@12@B		; std::_Iosb<int>::badbit
PUBLIC	?_Hardfail@?$_Iosb@H@std@@2W4_Iostate@12@B	; std::_Iosb<int>::_Hardfail
PUBLIC	?in@?$_Iosb@H@std@@2W4_Openmode@12@B		; std::_Iosb<int>::in
PUBLIC	?out@?$_Iosb@H@std@@2W4_Openmode@12@B		; std::_Iosb<int>::out
PUBLIC	?is_signed@?$numeric_limits@D@std@@2_NB		; std::numeric_limits<char>::is_signed
PUBLIC	?ate@?$_Iosb@H@std@@2W4_Openmode@12@B		; std::_Iosb<int>::ate
PUBLIC	?digits@?$numeric_limits@D@std@@2HB		; std::numeric_limits<char>::digits
PUBLIC	?digits10@?$numeric_limits@D@std@@2HB		; std::numeric_limits<char>::digits10
PUBLIC	?app@?$_Iosb@H@std@@2W4_Openmode@12@B		; std::_Iosb<int>::app
PUBLIC	?trunc@?$_Iosb@H@std@@2W4_Openmode@12@B		; std::_Iosb<int>::trunc
PUBLIC	?_Nocreate@?$_Iosb@H@std@@2W4_Openmode@12@B	; std::_Iosb<int>::_Nocreate
PUBLIC	?_Noreplace@?$_Iosb@H@std@@2W4_Openmode@12@B	; std::_Iosb<int>::_Noreplace
PUBLIC	?value@?$_Is_ratio@U?$ratio@$00$00@std@@@chrono@std@@2_NB ; std::chrono::_Is_ratio<std::ratio<1,1> >::value
PUBLIC	?_S_cancelBitsMask@_TaskCollectionBase@details@Concurrency@@1IB ; Concurrency::details::_TaskCollectionBase::_S_cancelBitsMask
PUBLIC	?binary@?$_Iosb@H@std@@2W4_Openmode@12@B	; std::_Iosb<int>::binary
PUBLIC	?_S_cancelNone@_TaskCollectionBase@details@Concurrency@@1IB ; Concurrency::details::_TaskCollectionBase::_S_cancelNone
PUBLIC	?_S_cancelStarted@_TaskCollectionBase@details@Concurrency@@1IB ; Concurrency::details::_TaskCollectionBase::_S_cancelStarted
PUBLIC	?_S_cancelDeferredShootdownOwner@_TaskCollectionBase@details@Concurrency@@1IB ; Concurrency::details::_TaskCollectionBase::_S_cancelDeferredShootdownOwner
PUBLIC	?beg@?$_Iosb@H@std@@2W4_Seekdir@12@B		; std::_Iosb<int>::beg
PUBLIC	?_S_cancelShotdownOwner@_TaskCollectionBase@details@Concurrency@@1IB ; Concurrency::details::_TaskCollectionBase::_S_cancelShotdownOwner
PUBLIC	?cur@?$_Iosb@H@std@@2W4_Seekdir@12@B		; std::_Iosb<int>::cur
PUBLIC	?_S_nonNull@_TaskCollectionBase@details@Concurrency@@1IB ; Concurrency::details::_TaskCollectionBase::_S_nonNull
PUBLIC	?_S_cancelException@_TaskCollectionBase@details@Concurrency@@1IB ; Concurrency::details::_TaskCollectionBase::_S_cancelException
PUBLIC	?end@?$_Iosb@H@std@@2W4_Seekdir@12@B		; std::_Iosb<int>::end
PUBLIC	?_S_notInlined@_TaskCollectionBase@details@Concurrency@@1HB ; Concurrency::details::_TaskCollectionBase::_S_notInlined
PUBLIC	?_S_structured@_TaskCollectionBase@details@Concurrency@@1HB ; Concurrency::details::_TaskCollectionBase::_S_structured
PUBLIC	?_S_localCancel@_TaskCollectionBase@details@Concurrency@@1HB ; Concurrency::details::_TaskCollectionBase::_S_localCancel
PUBLIC	?is_signed@?$numeric_limits@_W@std@@2_NB	; std::numeric_limits<wchar_t>::is_signed
PUBLIC	?_S_reserved@_TaskCollectionBase@details@Concurrency@@1HB ; Concurrency::details::_TaskCollectionBase::_S_reserved
PUBLIC	?digits@?$numeric_limits@_W@std@@2HB		; std::numeric_limits<wchar_t>::digits
PUBLIC	?digits10@?$numeric_limits@_W@std@@2HB		; std::numeric_limits<wchar_t>::digits10
PUBLIC	?_Stream_err@failure@ios_base@std@@0W4io_errc@43@B ; std::ios_base::failure::_Stream_err
PUBLIC	?is_modulo@?$numeric_limits@_N@std@@2_NB	; std::numeric_limits<bool>::is_modulo
PUBLIC	?is_signed@?$numeric_limits@_N@std@@2_NB	; std::numeric_limits<bool>::is_signed
PUBLIC	?value@?$_Is_ratio@U?$ratio@$00$0JIJGIA@@std@@@chrono@std@@2_NB ; std::chrono::_Is_ratio<std::ratio<1,10000000> >::value
PUBLIC	?digits@?$numeric_limits@_N@std@@2HB		; std::numeric_limits<bool>::digits
PUBLIC	?digits10@?$numeric_limits@_N@std@@2HB		; std::numeric_limits<bool>::digits10
PUBLIC	?value@?$_GcdX@$0JIJGIA@$00@std@@2_JB		; std::_GcdX<10000000,1>::value
PUBLIC	?value@?$_GcdX@$00$0JIJGIA@@std@@2_JB		; std::_GcdX<1,10000000>::value
PUBLIC	?value@?$_Gcd@$00$0JIJGIA@@std@@2_JB		; std::_Gcd<1,10000000>::value
PUBLIC	?is_signed@?$numeric_limits@C@std@@2_NB		; std::numeric_limits<signed char>::is_signed
PUBLIC	?digits@?$numeric_limits@C@std@@2HB		; std::numeric_limits<signed char>::digits
PUBLIC	?digits10@?$numeric_limits@C@std@@2HB		; std::numeric_limits<signed char>::digits10
PUBLIC	?num@?$ratio@$00$0JIJGIA@@std@@2_JB		; std::ratio<1,10000000>::num
PUBLIC	?den@?$ratio@$00$0JIJGIA@@std@@2_JB		; std::ratio<1,10000000>::den
PUBLIC	?is_signed@?$numeric_limits@E@std@@2_NB		; std::numeric_limits<unsigned char>::is_signed
PUBLIC	?digits@?$numeric_limits@E@std@@2HB		; std::numeric_limits<unsigned char>::digits
PUBLIC	?_G1@?$_Ratio_multiply2@U?$ratio@$00$0JIJGIA@@std@@U?$ratio@$0JIJGIA@$00@2@@std@@2_JB ; std::_Ratio_multiply2<std::ratio<1,10000000>,std::ratio<10000000,1> >::_G1
PUBLIC	?digits10@?$numeric_limits@E@std@@2HB		; std::numeric_limits<unsigned char>::digits10
PUBLIC	?value@?$_Abs@$0JIJGIA@@std@@2_JB		; std::_Abs<10000000>::value
PUBLIC	?value@?$_GcdX@$0JIJGIA@$0A@@std@@2_JB		; std::_GcdX<10000000,0>::value
PUBLIC	?value@?$integral_constant@_N$0A@@std@@2_NB	; std::integral_constant<bool,0>::value
PUBLIC	?value@?$_GcdX@$0JIJGIA@$0JIJGIA@@std@@2_JB	; std::_GcdX<10000000,10000000>::value
PUBLIC	?is_signed@?$numeric_limits@F@std@@2_NB		; std::numeric_limits<short>::is_signed
PUBLIC	?value@?$integral_constant@_N$00@std@@2_NB	; std::integral_constant<bool,1>::value
PUBLIC	?value@?$_Gcd@$0JIJGIA@$0JIJGIA@@std@@2_JB	; std::_Gcd<10000000,10000000>::value
PUBLIC	?digits@?$numeric_limits@F@std@@2HB		; std::numeric_limits<short>::digits
PUBLIC	?digits10@?$numeric_limits@F@std@@2HB		; std::numeric_limits<short>::digits10
PUBLIC	?_G2@?$_Ratio_multiply2@U?$ratio@$00$0JIJGIA@@std@@U?$ratio@$0JIJGIA@$00@2@@std@@2_JB ; std::_Ratio_multiply2<std::ratio<1,10000000>,std::ratio<10000000,1> >::_G2
PUBLIC	?value@?$integral_constant@I$0A@@std@@2IB	; std::integral_constant<unsigned int,0>::value
PUBLIC	?is_signed@?$numeric_limits@G@std@@2_NB		; std::numeric_limits<unsigned short>::is_signed
PUBLIC	?digits@?$numeric_limits@G@std@@2HB		; std::numeric_limits<unsigned short>::digits
PUBLIC	?digits10@?$numeric_limits@G@std@@2HB		; std::numeric_limits<unsigned short>::digits10
PUBLIC	?num@?$ratio@$00$00@std@@2_JB			; std::ratio<1,1>::num
PUBLIC	?den@?$ratio@$00$00@std@@2_JB			; std::ratio<1,1>::den
PUBLIC	?value@?$_Is_ratio@U?$ratio@$00$0DOI@@std@@@chrono@std@@2_NB ; std::chrono::_Is_ratio<std::ratio<1,1000> >::value
PUBLIC	?is_signed@?$numeric_limits@H@std@@2_NB		; std::numeric_limits<int>::is_signed
PUBLIC	?value@?$_Abs@$0DOI@@std@@2_JB			; std::_Abs<1000>::value
PUBLIC	?digits@?$numeric_limits@H@std@@2HB		; std::numeric_limits<int>::digits
PUBLIC	?_Gx@?$_Lcm@$0DOI@$0DOI@@std@@2_JB		; std::_Lcm<1000,1000>::_Gx
PUBLIC	?digits10@?$numeric_limits@H@std@@2HB		; std::numeric_limits<int>::digits10
PUBLIC	?value@?$_Lcm@$0DOI@$0DOI@@std@@2_JB		; std::_Lcm<1000,1000>::value
PUBLIC	?value@?$_GcdX@$0DOI@$00@std@@2_JB		; std::_GcdX<1000,1>::value
PUBLIC	?colorsEnabled@@3_NA				; colorsEnabled
PUBLIC	?gameView@@3PAVScreen@@A			; gameView
PUBLIC	?value@?$_GcdX@$00$0DOI@@std@@2_JB		; std::_GcdX<1,1000>::value
PUBLIC	?value@?$_Gcd@$00$0DOI@@std@@2_JB		; std::_Gcd<1,1000>::value
PUBLIC	?is_signed@?$numeric_limits@I@std@@2_NB		; std::numeric_limits<unsigned int>::is_signed
PUBLIC	?num@?$ratio@$00$0DOI@@std@@2_JB		; std::ratio<1,1000>::num
PUBLIC	?digits@?$numeric_limits@I@std@@2HB		; std::numeric_limits<unsigned int>::digits
PUBLIC	?den@?$ratio@$00$0DOI@@std@@2_JB		; std::ratio<1,1000>::den
PUBLIC	?digits10@?$numeric_limits@I@std@@2HB		; std::numeric_limits<unsigned int>::digits10
PUBLIC	?value@?$_Sizeof@U_Nil@std@@U12@U12@U12@U12@U12@U12@U12@@std@@2IB ; std::_Sizeof<std::_Nil,std::_Nil,std::_Nil,std::_Nil,std::_Nil,std::_Nil,std::_Nil,std::_Nil>::value
PUBLIC	?is_signed@?$numeric_limits@J@std@@2_NB		; std::numeric_limits<long>::is_signed
PUBLIC	?_G1@?$_Ratio_multiply2@U?$ratio@$00$0DLJKMKAA@@std@@U?$ratio@$0DLJKMKAA@$00@2@@std@@2_JB ; std::_Ratio_multiply2<std::ratio<1,1000000000>,std::ratio<1000000000,1> >::_G1
PUBLIC	?digits@?$numeric_limits@J@std@@2HB		; std::numeric_limits<long>::digits
PUBLIC	?digits10@?$numeric_limits@J@std@@2HB		; std::numeric_limits<long>::digits10
PUBLIC	?is_monotonic@steady_clock@chrono@std@@2_NB	; std::chrono::steady_clock::is_monotonic
PUBLIC	?is_steady@steady_clock@chrono@std@@2_NB	; std::chrono::steady_clock::is_steady
PUBLIC	?value@?$_GcdX@$0DLJKMKAA@$0A@@std@@2_JB	; std::_GcdX<1000000000,0>::value
PUBLIC	?value@?$_GcdX@$0DLJKMKAA@$0DLJKMKAA@@std@@2_JB	; std::_GcdX<1000000000,1000000000>::value
PUBLIC	?_G1@?$_Ratio_multiply2@U?$ratio@$00$0JIJGIA@@std@@U?$ratio@$0DLJKMKAA@$00@2@@std@@2_JB ; std::_Ratio_multiply2<std::ratio<1,10000000>,std::ratio<1000000000,1> >::_G1
PUBLIC	?value@?$_Gcd@$0DLJKMKAA@$0DLJKMKAA@@std@@2_JB	; std::_Gcd<1000000000,1000000000>::value
PUBLIC	?value@?$_GcdX@$0DLJKMKAA@$0JIJGIA@@std@@2_JB	; std::_GcdX<1000000000,10000000>::value
PUBLIC	?_G2@?$_Ratio_multiply2@U?$ratio@$00$0DLJKMKAA@@std@@U?$ratio@$0DLJKMKAA@$00@2@@std@@2_JB ; std::_Ratio_multiply2<std::ratio<1,1000000000>,std::ratio<1000000000,1> >::_G2
PUBLIC	?is_signed@?$numeric_limits@K@std@@2_NB		; std::numeric_limits<unsigned long>::is_signed
PUBLIC	?value@?$_Gcd@$0DLJKMKAA@$0JIJGIA@@std@@2_JB	; std::_Gcd<1000000000,10000000>::value
PUBLIC	?digits@?$numeric_limits@K@std@@2HB		; std::numeric_limits<unsigned long>::digits
PUBLIC	?digits10@?$numeric_limits@K@std@@2HB		; std::numeric_limits<unsigned long>::digits10
PUBLIC	?_G2@?$_Ratio_multiply2@U?$ratio@$00$0JIJGIA@@std@@U?$ratio@$0DLJKMKAA@$00@2@@std@@2_JB ; std::_Ratio_multiply2<std::ratio<1,10000000>,std::ratio<1000000000,1> >::_G2
PUBLIC	_ConcRT_ProviderGuid
PUBLIC	_ConcRTEventGuid
PUBLIC	_SchedulerEventGuid
PUBLIC	_ScheduleGroupEventGuid
PUBLIC	_ContextEventGuid
PUBLIC	?is_signed@?$numeric_limits@_J@std@@2_NB	; std::numeric_limits<__int64>::is_signed
PUBLIC	_ChoreEventGuid
PUBLIC	_VirtualProcessorEventGuid
PUBLIC	_LockEventGuid
PUBLIC	_ResourceManagerEventGuid
PUBLIC	?digits@?$numeric_limits@_J@std@@2HB		; std::numeric_limits<__int64>::digits
PUBLIC	_PPLParallelInvokeEventGuid
PUBLIC	_PPLParallelForEventGuid
PUBLIC	_PPLParallelForeachEventGuid
PUBLIC	_AgentEventGuid
PUBLIC	?digits10@?$numeric_limits@_J@std@@2HB		; std::numeric_limits<__int64>::digits10
PUBLIC	?value@?$_GcdX@$0GE@$00@std@@2_JB		; std::_GcdX<100,1>::value
PUBLIC	?value@?$_Gcd@$0GE@$00@std@@2_JB		; std::_Gcd<100,1>::value
PUBLIC	?num@?$ratio@$0GE@$00@std@@2_JB			; std::ratio<100,1>::num
PUBLIC	?is_signed@?$numeric_limits@_K@std@@2_NB	; std::numeric_limits<unsigned __int64>::is_signed
PUBLIC	?den@?$ratio@$0GE@$00@std@@2_JB			; std::ratio<100,1>::den
PUBLIC	?digits@?$numeric_limits@_K@std@@2HB		; std::numeric_limits<unsigned __int64>::digits
PUBLIC	?digits10@?$numeric_limits@_K@std@@2HB		; std::numeric_limits<unsigned __int64>::digits10
PUBLIC	?digits@?$numeric_limits@M@std@@2HB		; std::numeric_limits<float>::digits
PUBLIC	?digits10@?$numeric_limits@M@std@@2HB		; std::numeric_limits<float>::digits10
PUBLIC	?max_digits10@?$numeric_limits@M@std@@2HB	; std::numeric_limits<float>::max_digits10
PUBLIC	?max_exponent@?$numeric_limits@M@std@@2HB	; std::numeric_limits<float>::max_exponent
PUBLIC	?_G1@?$_Ratio_multiply2@U?$ratio@$00$0DOI@@std@@U?$ratio@$0DLJKMKAA@$00@2@@std@@2_JB ; std::_Ratio_multiply2<std::ratio<1,1000>,std::ratio<1000000000,1> >::_G1
PUBLIC	?max_exponent10@?$numeric_limits@M@std@@2HB	; std::numeric_limits<float>::max_exponent10
PUBLIC	?min_exponent@?$numeric_limits@M@std@@2HB	; std::numeric_limits<float>::min_exponent
PUBLIC	?min_exponent10@?$numeric_limits@M@std@@2HB	; std::numeric_limits<float>::min_exponent10
PUBLIC	?value@?$_GcdX@$0DOI@$0A@@std@@2_JB		; std::_GcdX<1000,0>::value
PUBLIC	?value@?$_GcdX@$0DLJKMKAA@$0DOI@@std@@2_JB	; std::_GcdX<1000000000,1000>::value
PUBLIC	?value@?$_Gcd@$0DLJKMKAA@$0DOI@@std@@2_JB	; std::_Gcd<1000000000,1000>::value
PUBLIC	?_G2@?$_Ratio_multiply2@U?$ratio@$00$0DOI@@std@@U?$ratio@$0DLJKMKAA@$00@2@@std@@2_JB ; std::_Ratio_multiply2<std::ratio<1,1000>,std::ratio<1000000000,1> >::_G2
PUBLIC	?digits@?$numeric_limits@N@std@@2HB		; std::numeric_limits<double>::digits
PUBLIC	?digits10@?$numeric_limits@N@std@@2HB		; std::numeric_limits<double>::digits10
PUBLIC	?max_digits10@?$numeric_limits@N@std@@2HB	; std::numeric_limits<double>::max_digits10
PUBLIC	?max_exponent@?$numeric_limits@N@std@@2HB	; std::numeric_limits<double>::max_exponent
PUBLIC	?max_exponent10@?$numeric_limits@N@std@@2HB	; std::numeric_limits<double>::max_exponent10
PUBLIC	?min_exponent@?$numeric_limits@N@std@@2HB	; std::numeric_limits<double>::min_exponent
PUBLIC	?_G1@?$_Ratio_multiply2@U?$ratio@$00$0DOI@@std@@U?$ratio@$0DOI@$00@2@@std@@2_JB ; std::_Ratio_multiply2<std::ratio<1,1000>,std::ratio<1000,1> >::_G1
PUBLIC	?min_exponent10@?$numeric_limits@N@std@@2HB	; std::numeric_limits<double>::min_exponent10
PUBLIC	?value@?$_GcdX@$0DOI@$0DOI@@std@@2_JB		; std::_GcdX<1000,1000>::value
PUBLIC	?ai_player_mutex@@3PAUpthread_mutex_t_@@A	; ai_player_mutex
PUBLIC	?value@?$_Gcd@$0DOI@$0DOI@@std@@2_JB		; std::_Gcd<1000,1000>::value
PUBLIC	?value@?$_Abs@$0PECEA@@std@@2_JB		; std::_Abs<1000000>::value
PUBLIC	?_G2@?$_Ratio_multiply2@U?$ratio@$00$0DOI@@std@@U?$ratio@$0DOI@$00@2@@std@@2_JB ; std::_Ratio_multiply2<std::ratio<1,1000>,std::ratio<1000,1> >::_G2
PUBLIC	?digits@?$numeric_limits@O@std@@2HB		; std::numeric_limits<long double>::digits
PUBLIC	?value@?$_GcdX@$0PECEA@$00@std@@2_JB		; std::_GcdX<1000000,1>::value
PUBLIC	?digits10@?$numeric_limits@O@std@@2HB		; std::numeric_limits<long double>::digits10
PUBLIC	?max_digits10@?$numeric_limits@O@std@@2HB	; std::numeric_limits<long double>::max_digits10
_BSS	SEGMENT
?colorsEnabled@@3_NA DB 01H DUP (?)			; colorsEnabled
	ALIGN	4

?gameView@@3PAVScreen@@A DD 01H DUP (?)			; gameView
_BSS	ENDS
;	COMDAT ?max_digits10@?$numeric_limits@O@std@@2HB
CONST	SEGMENT
?max_digits10@?$numeric_limits@O@std@@2HB DD 011H	; std::numeric_limits<long double>::max_digits10
CONST	ENDS
;	COMDAT ?digits10@?$numeric_limits@O@std@@2HB
CONST	SEGMENT
?digits10@?$numeric_limits@O@std@@2HB DD 0fH		; std::numeric_limits<long double>::digits10
CONST	ENDS
;	COMDAT ?value@?$_GcdX@$0PECEA@$00@std@@2_JB
CONST	SEGMENT
?value@?$_GcdX@$0PECEA@$00@std@@2_JB DQ 0000000000000001H ; std::_GcdX<1000000,1>::value
CONST	ENDS
;	COMDAT ?digits@?$numeric_limits@O@std@@2HB
CONST	SEGMENT
?digits@?$numeric_limits@O@std@@2HB DD 035H		; std::numeric_limits<long double>::digits
CONST	ENDS
;	COMDAT ?_G2@?$_Ratio_multiply2@U?$ratio@$00$0DOI@@std@@U?$ratio@$0DOI@$00@2@@std@@2_JB
CONST	SEGMENT
?_G2@?$_Ratio_multiply2@U?$ratio@$00$0DOI@@std@@U?$ratio@$0DOI@$00@2@@std@@2_JB DQ 00000000000003e8H ; std::_Ratio_multiply2<std::ratio<1,1000>,std::ratio<1000,1> >::_G2
CONST	ENDS
;	COMDAT ?value@?$_Abs@$0PECEA@@std@@2_JB
CONST	SEGMENT
?value@?$_Abs@$0PECEA@@std@@2_JB DQ 00000000000f4240H	; std::_Abs<1000000>::value
CONST	ENDS
;	COMDAT ?value@?$_Gcd@$0DOI@$0DOI@@std@@2_JB
CONST	SEGMENT
?value@?$_Gcd@$0DOI@$0DOI@@std@@2_JB DQ 00000000000003e8H ; std::_Gcd<1000,1000>::value
CONST	ENDS
_DATA	SEGMENT
?ai_player_mutex@@3PAUpthread_mutex_t_@@A DD 0ffffffffH	; ai_player_mutex
_DATA	ENDS
;	COMDAT ?value@?$_GcdX@$0DOI@$0DOI@@std@@2_JB
CONST	SEGMENT
?value@?$_GcdX@$0DOI@$0DOI@@std@@2_JB DQ 00000000000003e8H ; std::_GcdX<1000,1000>::value
CONST	ENDS
;	COMDAT ?min_exponent10@?$numeric_limits@N@std@@2HB
CONST	SEGMENT
?min_exponent10@?$numeric_limits@N@std@@2HB DD 0fffffecdH ; std::numeric_limits<double>::min_exponent10
CONST	ENDS
;	COMDAT ?_G1@?$_Ratio_multiply2@U?$ratio@$00$0DOI@@std@@U?$ratio@$0DOI@$00@2@@std@@2_JB
CONST	SEGMENT
?_G1@?$_Ratio_multiply2@U?$ratio@$00$0DOI@@std@@U?$ratio@$0DOI@$00@2@@std@@2_JB DQ 0000000000000001H ; std::_Ratio_multiply2<std::ratio<1,1000>,std::ratio<1000,1> >::_G1
CONST	ENDS
;	COMDAT ?min_exponent@?$numeric_limits@N@std@@2HB
CONST	SEGMENT
?min_exponent@?$numeric_limits@N@std@@2HB DD 0fffffc03H	; std::numeric_limits<double>::min_exponent
CONST	ENDS
;	COMDAT ?max_exponent10@?$numeric_limits@N@std@@2HB
CONST	SEGMENT
?max_exponent10@?$numeric_limits@N@std@@2HB DD 0134H	; std::numeric_limits<double>::max_exponent10
CONST	ENDS
;	COMDAT ?max_exponent@?$numeric_limits@N@std@@2HB
CONST	SEGMENT
?max_exponent@?$numeric_limits@N@std@@2HB DD 0400H	; std::numeric_limits<double>::max_exponent
CONST	ENDS
;	COMDAT ?max_digits10@?$numeric_limits@N@std@@2HB
CONST	SEGMENT
?max_digits10@?$numeric_limits@N@std@@2HB DD 011H	; std::numeric_limits<double>::max_digits10
CONST	ENDS
;	COMDAT ?digits10@?$numeric_limits@N@std@@2HB
CONST	SEGMENT
?digits10@?$numeric_limits@N@std@@2HB DD 0fH		; std::numeric_limits<double>::digits10
CONST	ENDS
;	COMDAT ?digits@?$numeric_limits@N@std@@2HB
CONST	SEGMENT
?digits@?$numeric_limits@N@std@@2HB DD 035H		; std::numeric_limits<double>::digits
CONST	ENDS
;	COMDAT ?_G2@?$_Ratio_multiply2@U?$ratio@$00$0DOI@@std@@U?$ratio@$0DLJKMKAA@$00@2@@std@@2_JB
CONST	SEGMENT
?_G2@?$_Ratio_multiply2@U?$ratio@$00$0DOI@@std@@U?$ratio@$0DLJKMKAA@$00@2@@std@@2_JB DQ 00000000000003e8H ; std::_Ratio_multiply2<std::ratio<1,1000>,std::ratio<1000000000,1> >::_G2
CONST	ENDS
;	COMDAT ?value@?$_Gcd@$0DLJKMKAA@$0DOI@@std@@2_JB
CONST	SEGMENT
?value@?$_Gcd@$0DLJKMKAA@$0DOI@@std@@2_JB DQ 00000000000003e8H ; std::_Gcd<1000000000,1000>::value
CONST	ENDS
;	COMDAT ?value@?$_GcdX@$0DLJKMKAA@$0DOI@@std@@2_JB
CONST	SEGMENT
?value@?$_GcdX@$0DLJKMKAA@$0DOI@@std@@2_JB DQ 00000000000003e8H ; std::_GcdX<1000000000,1000>::value
CONST	ENDS
;	COMDAT ?value@?$_GcdX@$0DOI@$0A@@std@@2_JB
CONST	SEGMENT
?value@?$_GcdX@$0DOI@$0A@@std@@2_JB DQ 00000000000003e8H ; std::_GcdX<1000,0>::value
CONST	ENDS
;	COMDAT ?min_exponent10@?$numeric_limits@M@std@@2HB
CONST	SEGMENT
?min_exponent10@?$numeric_limits@M@std@@2HB DD 0ffffffdbH ; std::numeric_limits<float>::min_exponent10
CONST	ENDS
;	COMDAT ?min_exponent@?$numeric_limits@M@std@@2HB
CONST	SEGMENT
?min_exponent@?$numeric_limits@M@std@@2HB DD 0ffffff83H	; std::numeric_limits<float>::min_exponent
CONST	ENDS
;	COMDAT ?max_exponent10@?$numeric_limits@M@std@@2HB
CONST	SEGMENT
?max_exponent10@?$numeric_limits@M@std@@2HB DD 026H	; std::numeric_limits<float>::max_exponent10
CONST	ENDS
;	COMDAT ?_G1@?$_Ratio_multiply2@U?$ratio@$00$0DOI@@std@@U?$ratio@$0DLJKMKAA@$00@2@@std@@2_JB
CONST	SEGMENT
?_G1@?$_Ratio_multiply2@U?$ratio@$00$0DOI@@std@@U?$ratio@$0DLJKMKAA@$00@2@@std@@2_JB DQ 0000000000000001H ; std::_Ratio_multiply2<std::ratio<1,1000>,std::ratio<1000000000,1> >::_G1
CONST	ENDS
;	COMDAT ?max_exponent@?$numeric_limits@M@std@@2HB
CONST	SEGMENT
?max_exponent@?$numeric_limits@M@std@@2HB DD 080H	; std::numeric_limits<float>::max_exponent
CONST	ENDS
;	COMDAT ?max_digits10@?$numeric_limits@M@std@@2HB
CONST	SEGMENT
?max_digits10@?$numeric_limits@M@std@@2HB DD 09H	; std::numeric_limits<float>::max_digits10
CONST	ENDS
;	COMDAT ?digits10@?$numeric_limits@M@std@@2HB
CONST	SEGMENT
?digits10@?$numeric_limits@M@std@@2HB DD 06H		; std::numeric_limits<float>::digits10
CONST	ENDS
;	COMDAT ?digits@?$numeric_limits@M@std@@2HB
CONST	SEGMENT
?digits@?$numeric_limits@M@std@@2HB DD 018H		; std::numeric_limits<float>::digits
CONST	ENDS
;	COMDAT ?digits10@?$numeric_limits@_K@std@@2HB
CONST	SEGMENT
?digits10@?$numeric_limits@_K@std@@2HB DD 013H		; std::numeric_limits<unsigned __int64>::digits10
CONST	ENDS
;	COMDAT ?digits@?$numeric_limits@_K@std@@2HB
CONST	SEGMENT
?digits@?$numeric_limits@_K@std@@2HB DD 040H		; std::numeric_limits<unsigned __int64>::digits
CONST	ENDS
;	COMDAT ?den@?$ratio@$0GE@$00@std@@2_JB
CONST	SEGMENT
?den@?$ratio@$0GE@$00@std@@2_JB DQ 0000000000000001H	; std::ratio<100,1>::den
CONST	ENDS
;	COMDAT ?is_signed@?$numeric_limits@_K@std@@2_NB
CONST	SEGMENT
?is_signed@?$numeric_limits@_K@std@@2_NB DB 00H		; std::numeric_limits<unsigned __int64>::is_signed
CONST	ENDS
;	COMDAT ?num@?$ratio@$0GE@$00@std@@2_JB
CONST	SEGMENT
?num@?$ratio@$0GE@$00@std@@2_JB DQ 0000000000000064H	; std::ratio<100,1>::num
CONST	ENDS
;	COMDAT ?value@?$_Gcd@$0GE@$00@std@@2_JB
CONST	SEGMENT
?value@?$_Gcd@$0GE@$00@std@@2_JB DQ 0000000000000001H	; std::_Gcd<100,1>::value
CONST	ENDS
;	COMDAT ?value@?$_GcdX@$0GE@$00@std@@2_JB
CONST	SEGMENT
?value@?$_GcdX@$0GE@$00@std@@2_JB DQ 0000000000000001H	; std::_GcdX<100,1>::value
CONST	ENDS
;	COMDAT ?digits10@?$numeric_limits@_J@std@@2HB
CONST	SEGMENT
?digits10@?$numeric_limits@_J@std@@2HB DD 012H		; std::numeric_limits<__int64>::digits10
CONST	ENDS
;	COMDAT _AgentEventGuid
CONST	SEGMENT
_AgentEventGuid DD 0b9b5b78cH
	DW	0713H
	DW	04898H
	DB	0a2H
	DB	01aH
	DB	0c6H
	DB	079H
	DB	049H
	DB	0dcH
	DB	0edH
	DB	07H
CONST	ENDS
;	COMDAT _PPLParallelForeachEventGuid
CONST	SEGMENT
_PPLParallelForeachEventGuid DD 05cb7d785H
	DW	09d66H
	DW	0465dH
	DB	0baH
	DB	0e1H
	DB	046H
	DB	011H
	DB	06H
	DB	01bH
	DB	054H
	DB	034H
CONST	ENDS
;	COMDAT _PPLParallelForEventGuid
CONST	SEGMENT
_PPLParallelForEventGuid DD 031c8da6bH
	DW	06165H
	DW	04042H
	DB	08bH
	DB	092H
	DB	094H
	DB	09eH
	DB	031H
	DB	05fH
	DB	04dH
	DB	084H
CONST	ENDS
;	COMDAT _PPLParallelInvokeEventGuid
CONST	SEGMENT
_PPLParallelInvokeEventGuid DD 0d1b5b133H
	DW	0ec3dH
	DW	049f4H
	DB	098H
	DB	0a3H
	DB	046H
	DB	04dH
	DB	01aH
	DB	09eH
	DB	046H
	DB	082H
CONST	ENDS
;	COMDAT ?digits@?$numeric_limits@_J@std@@2HB
CONST	SEGMENT
?digits@?$numeric_limits@_J@std@@2HB DD 03fH		; std::numeric_limits<__int64>::digits
CONST	ENDS
;	COMDAT _ResourceManagerEventGuid
CONST	SEGMENT
_ResourceManagerEventGuid DD 02718d25bH
	DW	05bf5H
	DW	04479H
	DB	08eH
	DB	088H
	DB	0baH
	DB	0bcH
	DB	064H
	DB	0bdH
	DB	0bfH
	DB	0caH
CONST	ENDS
;	COMDAT _LockEventGuid
CONST	SEGMENT
_LockEventGuid DD 079a60dc6H
	DW	05fc8H
	DW	04952H
	DB	0a4H
	DB	01cH
	DB	011H
	DB	063H
	DB	0aeH
	DB	0ecH
	DB	05eH
	DB	0b8H
CONST	ENDS
;	COMDAT _VirtualProcessorEventGuid
CONST	SEGMENT
_VirtualProcessorEventGuid DD 02f27805fH
	DW	01676H
	DW	04eccH
	DB	096H
	DB	0faH
	DB	07eH
	DB	0b0H
	DB	09dH
	DB	044H
	DB	030H
	DB	02fH
CONST	ENDS
;	COMDAT _ChoreEventGuid
CONST	SEGMENT
_ChoreEventGuid DD 07e854ec7H
	DW	0cdc4H
	DW	0405aH
	DB	0b5H
	DB	0b2H
	DB	0aaH
	DB	0f7H
	DB	0c9H
	DB	0e7H
	DB	0d4H
	DB	0cH
CONST	ENDS
;	COMDAT ?is_signed@?$numeric_limits@_J@std@@2_NB
CONST	SEGMENT
?is_signed@?$numeric_limits@_J@std@@2_NB DB 01H		; std::numeric_limits<__int64>::is_signed
CONST	ENDS
;	COMDAT _ContextEventGuid
CONST	SEGMENT
_ContextEventGuid DD 05727a00fH
	DW	050beH
	DW	04519H
	DB	082H
	DB	056H
	DB	0f7H
	DB	069H
	DB	098H
	DB	071H
	DB	0feH
	DB	0cbH
CONST	ENDS
;	COMDAT _ScheduleGroupEventGuid
CONST	SEGMENT
_ScheduleGroupEventGuid DD 0e8a3bf1fH
	DW	0a86bH
	DW	04390H
	DB	09cH
	DB	060H
	DB	053H
	DB	090H
	DB	0b9H
	DB	069H
	DB	0d2H
	DB	02cH
CONST	ENDS
;	COMDAT _SchedulerEventGuid
CONST	SEGMENT
_SchedulerEventGuid DD 0e2091f8aH
	DW	01e0aH
	DW	04731H
	DB	084H
	DB	0a2H
	DB	0dH
	DB	0d5H
	DB	07cH
	DB	08aH
	DB	052H
	DB	061H
CONST	ENDS
;	COMDAT _ConcRTEventGuid
CONST	SEGMENT
_ConcRTEventGuid DD 072b14a7dH
	DW	0704cH
	DW	0423eH
	DB	092H
	DB	0f8H
	DB	07eH
	DB	06dH
	DB	064H
	DB	0bcH
	DB	0b9H
	DB	02aH
CONST	ENDS
;	COMDAT _ConcRT_ProviderGuid
CONST	SEGMENT
_ConcRT_ProviderGuid DD 0f7b697a3H
	DW	04db5H
	DW	04d3bH
	DB	0beH
	DB	071H
	DB	0c4H
	DB	0d2H
	DB	084H
	DB	0e6H
	DB	059H
	DB	02fH
CONST	ENDS
;	COMDAT ?_G2@?$_Ratio_multiply2@U?$ratio@$00$0JIJGIA@@std@@U?$ratio@$0DLJKMKAA@$00@2@@std@@2_JB
CONST	SEGMENT
?_G2@?$_Ratio_multiply2@U?$ratio@$00$0JIJGIA@@std@@U?$ratio@$0DLJKMKAA@$00@2@@std@@2_JB DQ 0000000000989680H ; std::_Ratio_multiply2<std::ratio<1,10000000>,std::ratio<1000000000,1> >::_G2
CONST	ENDS
;	COMDAT ?digits10@?$numeric_limits@K@std@@2HB
CONST	SEGMENT
?digits10@?$numeric_limits@K@std@@2HB DD 09H		; std::numeric_limits<unsigned long>::digits10
CONST	ENDS
;	COMDAT ?digits@?$numeric_limits@K@std@@2HB
CONST	SEGMENT
?digits@?$numeric_limits@K@std@@2HB DD 020H		; std::numeric_limits<unsigned long>::digits
CONST	ENDS
;	COMDAT ?value@?$_Gcd@$0DLJKMKAA@$0JIJGIA@@std@@2_JB
CONST	SEGMENT
?value@?$_Gcd@$0DLJKMKAA@$0JIJGIA@@std@@2_JB DQ 0000000000989680H ; std::_Gcd<1000000000,10000000>::value
CONST	ENDS
;	COMDAT ?is_signed@?$numeric_limits@K@std@@2_NB
CONST	SEGMENT
?is_signed@?$numeric_limits@K@std@@2_NB DB 00H		; std::numeric_limits<unsigned long>::is_signed
CONST	ENDS
;	COMDAT ?_G2@?$_Ratio_multiply2@U?$ratio@$00$0DLJKMKAA@@std@@U?$ratio@$0DLJKMKAA@$00@2@@std@@2_JB
CONST	SEGMENT
?_G2@?$_Ratio_multiply2@U?$ratio@$00$0DLJKMKAA@@std@@U?$ratio@$0DLJKMKAA@$00@2@@std@@2_JB DQ 000000003b9aca00H ; std::_Ratio_multiply2<std::ratio<1,1000000000>,std::ratio<1000000000,1> >::_G2
CONST	ENDS
;	COMDAT ?value@?$_GcdX@$0DLJKMKAA@$0JIJGIA@@std@@2_JB
CONST	SEGMENT
?value@?$_GcdX@$0DLJKMKAA@$0JIJGIA@@std@@2_JB DQ 0000000000989680H ; std::_GcdX<1000000000,10000000>::value
CONST	ENDS
;	COMDAT ?value@?$_Gcd@$0DLJKMKAA@$0DLJKMKAA@@std@@2_JB
CONST	SEGMENT
?value@?$_Gcd@$0DLJKMKAA@$0DLJKMKAA@@std@@2_JB DQ 000000003b9aca00H ; std::_Gcd<1000000000,1000000000>::value
CONST	ENDS
;	COMDAT ?_G1@?$_Ratio_multiply2@U?$ratio@$00$0JIJGIA@@std@@U?$ratio@$0DLJKMKAA@$00@2@@std@@2_JB
CONST	SEGMENT
?_G1@?$_Ratio_multiply2@U?$ratio@$00$0JIJGIA@@std@@U?$ratio@$0DLJKMKAA@$00@2@@std@@2_JB DQ 0000000000000001H ; std::_Ratio_multiply2<std::ratio<1,10000000>,std::ratio<1000000000,1> >::_G1
CONST	ENDS
;	COMDAT ?value@?$_GcdX@$0DLJKMKAA@$0DLJKMKAA@@std@@2_JB
CONST	SEGMENT
?value@?$_GcdX@$0DLJKMKAA@$0DLJKMKAA@@std@@2_JB DQ 000000003b9aca00H ; std::_GcdX<1000000000,1000000000>::value
CONST	ENDS
;	COMDAT ?value@?$_GcdX@$0DLJKMKAA@$0A@@std@@2_JB
CONST	SEGMENT
?value@?$_GcdX@$0DLJKMKAA@$0A@@std@@2_JB DQ 000000003b9aca00H ; std::_GcdX<1000000000,0>::value
CONST	ENDS
;	COMDAT ?is_steady@steady_clock@chrono@std@@2_NB
CONST	SEGMENT
?is_steady@steady_clock@chrono@std@@2_NB DB 01H		; std::chrono::steady_clock::is_steady
CONST	ENDS
;	COMDAT ?is_monotonic@steady_clock@chrono@std@@2_NB
CONST	SEGMENT
?is_monotonic@steady_clock@chrono@std@@2_NB DB 01H	; std::chrono::steady_clock::is_monotonic
CONST	ENDS
;	COMDAT ?digits10@?$numeric_limits@J@std@@2HB
CONST	SEGMENT
?digits10@?$numeric_limits@J@std@@2HB DD 09H		; std::numeric_limits<long>::digits10
CONST	ENDS
;	COMDAT ?digits@?$numeric_limits@J@std@@2HB
CONST	SEGMENT
?digits@?$numeric_limits@J@std@@2HB DD 01fH		; std::numeric_limits<long>::digits
CONST	ENDS
;	COMDAT ?_G1@?$_Ratio_multiply2@U?$ratio@$00$0DLJKMKAA@@std@@U?$ratio@$0DLJKMKAA@$00@2@@std@@2_JB
CONST	SEGMENT
?_G1@?$_Ratio_multiply2@U?$ratio@$00$0DLJKMKAA@@std@@U?$ratio@$0DLJKMKAA@$00@2@@std@@2_JB DQ 0000000000000001H ; std::_Ratio_multiply2<std::ratio<1,1000000000>,std::ratio<1000000000,1> >::_G1
CONST	ENDS
;	COMDAT ?is_signed@?$numeric_limits@J@std@@2_NB
CONST	SEGMENT
?is_signed@?$numeric_limits@J@std@@2_NB DB 01H		; std::numeric_limits<long>::is_signed
CONST	ENDS
;	COMDAT ?value@?$_Sizeof@U_Nil@std@@U12@U12@U12@U12@U12@U12@U12@@std@@2IB
CONST	SEGMENT
?value@?$_Sizeof@U_Nil@std@@U12@U12@U12@U12@U12@U12@U12@@std@@2IB DD 00H ; std::_Sizeof<std::_Nil,std::_Nil,std::_Nil,std::_Nil,std::_Nil,std::_Nil,std::_Nil,std::_Nil>::value
CONST	ENDS
;	COMDAT ?digits10@?$numeric_limits@I@std@@2HB
CONST	SEGMENT
?digits10@?$numeric_limits@I@std@@2HB DD 09H		; std::numeric_limits<unsigned int>::digits10
CONST	ENDS
;	COMDAT ?den@?$ratio@$00$0DOI@@std@@2_JB
CONST	SEGMENT
?den@?$ratio@$00$0DOI@@std@@2_JB DQ 00000000000003e8H	; std::ratio<1,1000>::den
CONST	ENDS
;	COMDAT ?digits@?$numeric_limits@I@std@@2HB
CONST	SEGMENT
?digits@?$numeric_limits@I@std@@2HB DD 020H		; std::numeric_limits<unsigned int>::digits
CONST	ENDS
;	COMDAT ?num@?$ratio@$00$0DOI@@std@@2_JB
CONST	SEGMENT
?num@?$ratio@$00$0DOI@@std@@2_JB DQ 0000000000000001H	; std::ratio<1,1000>::num
CONST	ENDS
;	COMDAT ?is_signed@?$numeric_limits@I@std@@2_NB
CONST	SEGMENT
?is_signed@?$numeric_limits@I@std@@2_NB DB 00H		; std::numeric_limits<unsigned int>::is_signed
CONST	ENDS
;	COMDAT ?value@?$_Gcd@$00$0DOI@@std@@2_JB
CONST	SEGMENT
?value@?$_Gcd@$00$0DOI@@std@@2_JB DQ 0000000000000001H	; std::_Gcd<1,1000>::value
CONST	ENDS
;	COMDAT ?value@?$_GcdX@$00$0DOI@@std@@2_JB
CONST	SEGMENT
?value@?$_GcdX@$00$0DOI@@std@@2_JB DQ 0000000000000001H	; std::_GcdX<1,1000>::value
CONST	ENDS
;	COMDAT ?value@?$_GcdX@$0DOI@$00@std@@2_JB
CONST	SEGMENT
?value@?$_GcdX@$0DOI@$00@std@@2_JB DQ 0000000000000001H	; std::_GcdX<1000,1>::value
CONST	ENDS
;	COMDAT ?value@?$_Lcm@$0DOI@$0DOI@@std@@2_JB
CONST	SEGMENT
?value@?$_Lcm@$0DOI@$0DOI@@std@@2_JB DQ 00000000000003e8H ; std::_Lcm<1000,1000>::value
CONST	ENDS
;	COMDAT ?digits10@?$numeric_limits@H@std@@2HB
CONST	SEGMENT
?digits10@?$numeric_limits@H@std@@2HB DD 09H		; std::numeric_limits<int>::digits10
CONST	ENDS
;	COMDAT ?_Gx@?$_Lcm@$0DOI@$0DOI@@std@@2_JB
CONST	SEGMENT
?_Gx@?$_Lcm@$0DOI@$0DOI@@std@@2_JB DQ 00000000000003e8H	; std::_Lcm<1000,1000>::_Gx
CONST	ENDS
;	COMDAT ?digits@?$numeric_limits@H@std@@2HB
CONST	SEGMENT
?digits@?$numeric_limits@H@std@@2HB DD 01fH		; std::numeric_limits<int>::digits
CONST	ENDS
;	COMDAT ?value@?$_Abs@$0DOI@@std@@2_JB
CONST	SEGMENT
?value@?$_Abs@$0DOI@@std@@2_JB DQ 00000000000003e8H	; std::_Abs<1000>::value
CONST	ENDS
;	COMDAT ?is_signed@?$numeric_limits@H@std@@2_NB
CONST	SEGMENT
?is_signed@?$numeric_limits@H@std@@2_NB DB 01H		; std::numeric_limits<int>::is_signed
CONST	ENDS
;	COMDAT ?value@?$_Is_ratio@U?$ratio@$00$0DOI@@std@@@chrono@std@@2_NB
CONST	SEGMENT
?value@?$_Is_ratio@U?$ratio@$00$0DOI@@std@@@chrono@std@@2_NB DB 01H ; std::chrono::_Is_ratio<std::ratio<1,1000> >::value
CONST	ENDS
;	COMDAT ?den@?$ratio@$00$00@std@@2_JB
CONST	SEGMENT
?den@?$ratio@$00$00@std@@2_JB DQ 0000000000000001H	; std::ratio<1,1>::den
CONST	ENDS
;	COMDAT ?num@?$ratio@$00$00@std@@2_JB
CONST	SEGMENT
?num@?$ratio@$00$00@std@@2_JB DQ 0000000000000001H	; std::ratio<1,1>::num
CONST	ENDS
;	COMDAT ?digits10@?$numeric_limits@G@std@@2HB
CONST	SEGMENT
?digits10@?$numeric_limits@G@std@@2HB DD 04H		; std::numeric_limits<unsigned short>::digits10
CONST	ENDS
;	COMDAT ?digits@?$numeric_limits@G@std@@2HB
CONST	SEGMENT
?digits@?$numeric_limits@G@std@@2HB DD 010H		; std::numeric_limits<unsigned short>::digits
CONST	ENDS
;	COMDAT ?is_signed@?$numeric_limits@G@std@@2_NB
CONST	SEGMENT
?is_signed@?$numeric_limits@G@std@@2_NB DB 00H		; std::numeric_limits<unsigned short>::is_signed
CONST	ENDS
;	COMDAT ?value@?$integral_constant@I$0A@@std@@2IB
CONST	SEGMENT
?value@?$integral_constant@I$0A@@std@@2IB DD 00H	; std::integral_constant<unsigned int,0>::value
CONST	ENDS
;	COMDAT ?_G2@?$_Ratio_multiply2@U?$ratio@$00$0JIJGIA@@std@@U?$ratio@$0JIJGIA@$00@2@@std@@2_JB
CONST	SEGMENT
?_G2@?$_Ratio_multiply2@U?$ratio@$00$0JIJGIA@@std@@U?$ratio@$0JIJGIA@$00@2@@std@@2_JB DQ 0000000000989680H ; std::_Ratio_multiply2<std::ratio<1,10000000>,std::ratio<10000000,1> >::_G2
CONST	ENDS
;	COMDAT ?digits10@?$numeric_limits@F@std@@2HB
CONST	SEGMENT
?digits10@?$numeric_limits@F@std@@2HB DD 04H		; std::numeric_limits<short>::digits10
CONST	ENDS
;	COMDAT ?digits@?$numeric_limits@F@std@@2HB
CONST	SEGMENT
?digits@?$numeric_limits@F@std@@2HB DD 0fH		; std::numeric_limits<short>::digits
CONST	ENDS
;	COMDAT ?value@?$_Gcd@$0JIJGIA@$0JIJGIA@@std@@2_JB
CONST	SEGMENT
?value@?$_Gcd@$0JIJGIA@$0JIJGIA@@std@@2_JB DQ 0000000000989680H ; std::_Gcd<10000000,10000000>::value
CONST	ENDS
;	COMDAT ?value@?$integral_constant@_N$00@std@@2_NB
CONST	SEGMENT
?value@?$integral_constant@_N$00@std@@2_NB DB 01H	; std::integral_constant<bool,1>::value
CONST	ENDS
;	COMDAT ?is_signed@?$numeric_limits@F@std@@2_NB
CONST	SEGMENT
?is_signed@?$numeric_limits@F@std@@2_NB DB 01H		; std::numeric_limits<short>::is_signed
CONST	ENDS
;	COMDAT ?value@?$_GcdX@$0JIJGIA@$0JIJGIA@@std@@2_JB
CONST	SEGMENT
?value@?$_GcdX@$0JIJGIA@$0JIJGIA@@std@@2_JB DQ 0000000000989680H ; std::_GcdX<10000000,10000000>::value
CONST	ENDS
;	COMDAT ?value@?$integral_constant@_N$0A@@std@@2_NB
CONST	SEGMENT
?value@?$integral_constant@_N$0A@@std@@2_NB DB 00H	; std::integral_constant<bool,0>::value
CONST	ENDS
;	COMDAT ?value@?$_GcdX@$0JIJGIA@$0A@@std@@2_JB
CONST	SEGMENT
?value@?$_GcdX@$0JIJGIA@$0A@@std@@2_JB DQ 0000000000989680H ; std::_GcdX<10000000,0>::value
CONST	ENDS
;	COMDAT ?value@?$_Abs@$0JIJGIA@@std@@2_JB
CONST	SEGMENT
?value@?$_Abs@$0JIJGIA@@std@@2_JB DQ 0000000000989680H	; std::_Abs<10000000>::value
CONST	ENDS
;	COMDAT ?digits10@?$numeric_limits@E@std@@2HB
CONST	SEGMENT
?digits10@?$numeric_limits@E@std@@2HB DD 02H		; std::numeric_limits<unsigned char>::digits10
CONST	ENDS
;	COMDAT ?_G1@?$_Ratio_multiply2@U?$ratio@$00$0JIJGIA@@std@@U?$ratio@$0JIJGIA@$00@2@@std@@2_JB
CONST	SEGMENT
?_G1@?$_Ratio_multiply2@U?$ratio@$00$0JIJGIA@@std@@U?$ratio@$0JIJGIA@$00@2@@std@@2_JB DQ 0000000000000001H ; std::_Ratio_multiply2<std::ratio<1,10000000>,std::ratio<10000000,1> >::_G1
CONST	ENDS
;	COMDAT ?digits@?$numeric_limits@E@std@@2HB
CONST	SEGMENT
?digits@?$numeric_limits@E@std@@2HB DD 08H		; std::numeric_limits<unsigned char>::digits
CONST	ENDS
;	COMDAT ?is_signed@?$numeric_limits@E@std@@2_NB
CONST	SEGMENT
?is_signed@?$numeric_limits@E@std@@2_NB DB 00H		; std::numeric_limits<unsigned char>::is_signed
CONST	ENDS
;	COMDAT ?den@?$ratio@$00$0JIJGIA@@std@@2_JB
CONST	SEGMENT
?den@?$ratio@$00$0JIJGIA@@std@@2_JB DQ 0000000000989680H ; std::ratio<1,10000000>::den
CONST	ENDS
;	COMDAT ?num@?$ratio@$00$0JIJGIA@@std@@2_JB
CONST	SEGMENT
?num@?$ratio@$00$0JIJGIA@@std@@2_JB DQ 0000000000000001H ; std::ratio<1,10000000>::num
CONST	ENDS
;	COMDAT ?digits10@?$numeric_limits@C@std@@2HB
CONST	SEGMENT
?digits10@?$numeric_limits@C@std@@2HB DD 02H		; std::numeric_limits<signed char>::digits10
CONST	ENDS
;	COMDAT ?digits@?$numeric_limits@C@std@@2HB
CONST	SEGMENT
?digits@?$numeric_limits@C@std@@2HB DD 07H		; std::numeric_limits<signed char>::digits
CONST	ENDS
;	COMDAT ?is_signed@?$numeric_limits@C@std@@2_NB
CONST	SEGMENT
?is_signed@?$numeric_limits@C@std@@2_NB DB 01H		; std::numeric_limits<signed char>::is_signed
CONST	ENDS
;	COMDAT ?value@?$_Gcd@$00$0JIJGIA@@std@@2_JB
CONST	SEGMENT
?value@?$_Gcd@$00$0JIJGIA@@std@@2_JB DQ 0000000000000001H ; std::_Gcd<1,10000000>::value
CONST	ENDS
;	COMDAT ?value@?$_GcdX@$00$0JIJGIA@@std@@2_JB
CONST	SEGMENT
?value@?$_GcdX@$00$0JIJGIA@@std@@2_JB DQ 0000000000000001H ; std::_GcdX<1,10000000>::value
CONST	ENDS
;	COMDAT ?value@?$_GcdX@$0JIJGIA@$00@std@@2_JB
CONST	SEGMENT
?value@?$_GcdX@$0JIJGIA@$00@std@@2_JB DQ 0000000000000001H ; std::_GcdX<10000000,1>::value
CONST	ENDS
;	COMDAT ?digits10@?$numeric_limits@_N@std@@2HB
CONST	SEGMENT
?digits10@?$numeric_limits@_N@std@@2HB DD 00H		; std::numeric_limits<bool>::digits10
CONST	ENDS
;	COMDAT ?digits@?$numeric_limits@_N@std@@2HB
CONST	SEGMENT
?digits@?$numeric_limits@_N@std@@2HB DD 01H		; std::numeric_limits<bool>::digits
CONST	ENDS
;	COMDAT ?value@?$_Is_ratio@U?$ratio@$00$0JIJGIA@@std@@@chrono@std@@2_NB
CONST	SEGMENT
?value@?$_Is_ratio@U?$ratio@$00$0JIJGIA@@std@@@chrono@std@@2_NB DB 01H ; std::chrono::_Is_ratio<std::ratio<1,10000000> >::value
CONST	ENDS
;	COMDAT ?is_signed@?$numeric_limits@_N@std@@2_NB
CONST	SEGMENT
?is_signed@?$numeric_limits@_N@std@@2_NB DB 00H		; std::numeric_limits<bool>::is_signed
CONST	ENDS
;	COMDAT ?is_modulo@?$numeric_limits@_N@std@@2_NB
CONST	SEGMENT
?is_modulo@?$numeric_limits@_N@std@@2_NB DB 00H		; std::numeric_limits<bool>::is_modulo
CONST	ENDS
;	COMDAT ?_Stream_err@failure@ios_base@std@@0W4io_errc@43@B
CONST	SEGMENT
?_Stream_err@failure@ios_base@std@@0W4io_errc@43@B DD 01H ; std::ios_base::failure::_Stream_err
CONST	ENDS
;	COMDAT ?digits10@?$numeric_limits@_W@std@@2HB
CONST	SEGMENT
?digits10@?$numeric_limits@_W@std@@2HB DD 04H		; std::numeric_limits<wchar_t>::digits10
CONST	ENDS
;	COMDAT ?digits@?$numeric_limits@_W@std@@2HB
CONST	SEGMENT
?digits@?$numeric_limits@_W@std@@2HB DD 010H		; std::numeric_limits<wchar_t>::digits
CONST	ENDS
;	COMDAT ?_S_reserved@_TaskCollectionBase@details@Concurrency@@1HB
CONST	SEGMENT
?_S_reserved@_TaskCollectionBase@details@Concurrency@@1HB DD 0cH ; Concurrency::details::_TaskCollectionBase::_S_reserved
CONST	ENDS
;	COMDAT ?is_signed@?$numeric_limits@_W@std@@2_NB
CONST	SEGMENT
?is_signed@?$numeric_limits@_W@std@@2_NB DB 00H		; std::numeric_limits<wchar_t>::is_signed
CONST	ENDS
;	COMDAT ?_S_localCancel@_TaskCollectionBase@details@Concurrency@@1HB
CONST	SEGMENT
?_S_localCancel@_TaskCollectionBase@details@Concurrency@@1HB DD 02H ; Concurrency::details::_TaskCollectionBase::_S_localCancel
CONST	ENDS
;	COMDAT ?_S_structured@_TaskCollectionBase@details@Concurrency@@1HB
CONST	SEGMENT
?_S_structured@_TaskCollectionBase@details@Concurrency@@1HB DD 01H ; Concurrency::details::_TaskCollectionBase::_S_structured
CONST	ENDS
;	COMDAT ?_S_notInlined@_TaskCollectionBase@details@Concurrency@@1HB
CONST	SEGMENT
?_S_notInlined@_TaskCollectionBase@details@Concurrency@@1HB DD 0ffffffffH ; Concurrency::details::_TaskCollectionBase::_S_notInlined
CONST	ENDS
;	COMDAT ?end@?$_Iosb@H@std@@2W4_Seekdir@12@B
CONST	SEGMENT
?end@?$_Iosb@H@std@@2W4_Seekdir@12@B DD 02H		; std::_Iosb<int>::end
CONST	ENDS
;	COMDAT ?_S_cancelException@_TaskCollectionBase@details@Concurrency@@1IB
CONST	SEGMENT
?_S_cancelException@_TaskCollectionBase@details@Concurrency@@1IB DD 0cH ; Concurrency::details::_TaskCollectionBase::_S_cancelException
CONST	ENDS
;	COMDAT ?_S_nonNull@_TaskCollectionBase@details@Concurrency@@1IB
CONST	SEGMENT
?_S_nonNull@_TaskCollectionBase@details@Concurrency@@1IB DD 08H ; Concurrency::details::_TaskCollectionBase::_S_nonNull
CONST	ENDS
;	COMDAT ?cur@?$_Iosb@H@std@@2W4_Seekdir@12@B
CONST	SEGMENT
?cur@?$_Iosb@H@std@@2W4_Seekdir@12@B DD 01H		; std::_Iosb<int>::cur
CONST	ENDS
;	COMDAT ?_S_cancelShotdownOwner@_TaskCollectionBase@details@Concurrency@@1IB
CONST	SEGMENT
?_S_cancelShotdownOwner@_TaskCollectionBase@details@Concurrency@@1IB DD 03H ; Concurrency::details::_TaskCollectionBase::_S_cancelShotdownOwner
CONST	ENDS
;	COMDAT ?beg@?$_Iosb@H@std@@2W4_Seekdir@12@B
CONST	SEGMENT
?beg@?$_Iosb@H@std@@2W4_Seekdir@12@B DD 00H		; std::_Iosb<int>::beg
CONST	ENDS
;	COMDAT ?_S_cancelDeferredShootdownOwner@_TaskCollectionBase@details@Concurrency@@1IB
CONST	SEGMENT
?_S_cancelDeferredShootdownOwner@_TaskCollectionBase@details@Concurrency@@1IB DD 02H ; Concurrency::details::_TaskCollectionBase::_S_cancelDeferredShootdownOwner
CONST	ENDS
;	COMDAT ?_S_cancelStarted@_TaskCollectionBase@details@Concurrency@@1IB
CONST	SEGMENT
?_S_cancelStarted@_TaskCollectionBase@details@Concurrency@@1IB DD 01H ; Concurrency::details::_TaskCollectionBase::_S_cancelStarted
CONST	ENDS
;	COMDAT ?_S_cancelNone@_TaskCollectionBase@details@Concurrency@@1IB
CONST	SEGMENT
?_S_cancelNone@_TaskCollectionBase@details@Concurrency@@1IB DD 00H ; Concurrency::details::_TaskCollectionBase::_S_cancelNone
CONST	ENDS
;	COMDAT ?binary@?$_Iosb@H@std@@2W4_Openmode@12@B
CONST	SEGMENT
?binary@?$_Iosb@H@std@@2W4_Openmode@12@B DD 020H	; std::_Iosb<int>::binary
CONST	ENDS
;	COMDAT ?_S_cancelBitsMask@_TaskCollectionBase@details@Concurrency@@1IB
CONST	SEGMENT
?_S_cancelBitsMask@_TaskCollectionBase@details@Concurrency@@1IB DD 03H ; Concurrency::details::_TaskCollectionBase::_S_cancelBitsMask
CONST	ENDS
;	COMDAT ?value@?$_Is_ratio@U?$ratio@$00$00@std@@@chrono@std@@2_NB
CONST	SEGMENT
?value@?$_Is_ratio@U?$ratio@$00$00@std@@@chrono@std@@2_NB DB 01H ; std::chrono::_Is_ratio<std::ratio<1,1> >::value
CONST	ENDS
;	COMDAT ?_Noreplace@?$_Iosb@H@std@@2W4_Openmode@12@B
CONST	SEGMENT
?_Noreplace@?$_Iosb@H@std@@2W4_Openmode@12@B DD 080H	; std::_Iosb<int>::_Noreplace
CONST	ENDS
;	COMDAT ?_Nocreate@?$_Iosb@H@std@@2W4_Openmode@12@B
CONST	SEGMENT
?_Nocreate@?$_Iosb@H@std@@2W4_Openmode@12@B DD 040H	; std::_Iosb<int>::_Nocreate
CONST	ENDS
;	COMDAT ?trunc@?$_Iosb@H@std@@2W4_Openmode@12@B
CONST	SEGMENT
?trunc@?$_Iosb@H@std@@2W4_Openmode@12@B DD 010H		; std::_Iosb<int>::trunc
CONST	ENDS
;	COMDAT ?app@?$_Iosb@H@std@@2W4_Openmode@12@B
CONST	SEGMENT
?app@?$_Iosb@H@std@@2W4_Openmode@12@B DD 08H		; std::_Iosb<int>::app
CONST	ENDS
;	COMDAT ?digits10@?$numeric_limits@D@std@@2HB
CONST	SEGMENT
?digits10@?$numeric_limits@D@std@@2HB DD 02H		; std::numeric_limits<char>::digits10
CONST	ENDS
;	COMDAT ?digits@?$numeric_limits@D@std@@2HB
CONST	SEGMENT
?digits@?$numeric_limits@D@std@@2HB DD 07H		; std::numeric_limits<char>::digits
CONST	ENDS
;	COMDAT ?ate@?$_Iosb@H@std@@2W4_Openmode@12@B
CONST	SEGMENT
?ate@?$_Iosb@H@std@@2W4_Openmode@12@B DD 04H		; std::_Iosb<int>::ate
CONST	ENDS
;	COMDAT ?is_signed@?$numeric_limits@D@std@@2_NB
CONST	SEGMENT
?is_signed@?$numeric_limits@D@std@@2_NB DB 01H		; std::numeric_limits<char>::is_signed
CONST	ENDS
;	COMDAT ?out@?$_Iosb@H@std@@2W4_Openmode@12@B
CONST	SEGMENT
?out@?$_Iosb@H@std@@2W4_Openmode@12@B DD 02H		; std::_Iosb<int>::out
CONST	ENDS
;	COMDAT ?in@?$_Iosb@H@std@@2W4_Openmode@12@B
CONST	SEGMENT
?in@?$_Iosb@H@std@@2W4_Openmode@12@B DD 01H		; std::_Iosb<int>::in
CONST	ENDS
;	COMDAT ?_Hardfail@?$_Iosb@H@std@@2W4_Iostate@12@B
CONST	SEGMENT
?_Hardfail@?$_Iosb@H@std@@2W4_Iostate@12@B DD 010H	; std::_Iosb<int>::_Hardfail
CONST	ENDS
;	COMDAT ?badbit@?$_Iosb@H@std@@2W4_Iostate@12@B
CONST	SEGMENT
?badbit@?$_Iosb@H@std@@2W4_Iostate@12@B DD 04H		; std::_Iosb<int>::badbit
CONST	ENDS
;	COMDAT ?failbit@?$_Iosb@H@std@@2W4_Iostate@12@B
CONST	SEGMENT
?failbit@?$_Iosb@H@std@@2W4_Iostate@12@B DD 02H		; std::_Iosb<int>::failbit
CONST	ENDS
;	COMDAT ?eofbit@?$_Iosb@H@std@@2W4_Iostate@12@B
CONST	SEGMENT
?eofbit@?$_Iosb@H@std@@2W4_Iostate@12@B DD 01H		; std::_Iosb<int>::eofbit
CONST	ENDS
;	COMDAT ?goodbit@?$_Iosb@H@std@@2W4_Iostate@12@B
CONST	SEGMENT
?goodbit@?$_Iosb@H@std@@2W4_Iostate@12@B DD 00H		; std::_Iosb<int>::goodbit
CONST	ENDS
;	COMDAT ?radix@_Num_float_base@std@@2HB
CONST	SEGMENT
?radix@_Num_float_base@std@@2HB DD 02H			; std::_Num_float_base::radix
CONST	ENDS
;	COMDAT ?round_style@_Num_float_base@std@@2W4float_round_style@2@B
CONST	SEGMENT
?round_style@_Num_float_base@std@@2W4float_round_style@2@B DD 01H ; std::_Num_float_base::round_style
CONST	ENDS
;	COMDAT ?floatfield@?$_Iosb@H@std@@2W4_Fmtflags@12@B
CONST	SEGMENT
?floatfield@?$_Iosb@H@std@@2W4_Fmtflags@12@B DD 03000H	; std::_Iosb<int>::floatfield
CONST	ENDS
;	COMDAT ?traps@_Num_float_base@std@@2_NB
CONST	SEGMENT
?traps@_Num_float_base@std@@2_NB DB 00H			; std::_Num_float_base::traps
CONST	ENDS
;	COMDAT ?basefield@?$_Iosb@H@std@@2W4_Fmtflags@12@B
CONST	SEGMENT
?basefield@?$_Iosb@H@std@@2W4_Fmtflags@12@B DD 0e00H	; std::_Iosb<int>::basefield
CONST	ENDS
;	COMDAT ?tinyness_before@_Num_float_base@std@@2_NB
CONST	SEGMENT
?tinyness_before@_Num_float_base@std@@2_NB DB 01H	; std::_Num_float_base::tinyness_before
CONST	ENDS
;	COMDAT ?adjustfield@?$_Iosb@H@std@@2W4_Fmtflags@12@B
CONST	SEGMENT
?adjustfield@?$_Iosb@H@std@@2W4_Fmtflags@12@B DD 01c0H	; std::_Iosb<int>::adjustfield
CONST	ENDS
;	COMDAT ?is_specialized@_Num_float_base@std@@2_NB
CONST	SEGMENT
?is_specialized@_Num_float_base@std@@2_NB DB 01H	; std::_Num_float_base::is_specialized
CONST	ENDS
;	COMDAT ?_Stdio@?$_Iosb@H@std@@2W4_Fmtflags@12@B
CONST	SEGMENT
?_Stdio@?$_Iosb@H@std@@2W4_Fmtflags@12@B DD 08000H	; std::_Iosb<int>::_Stdio
CONST	ENDS
;	COMDAT ?is_signed@_Num_float_base@std@@2_NB
CONST	SEGMENT
?is_signed@_Num_float_base@std@@2_NB DB 01H		; std::_Num_float_base::is_signed
CONST	ENDS
;	COMDAT ?boolalpha@?$_Iosb@H@std@@2W4_Fmtflags@12@B
CONST	SEGMENT
?boolalpha@?$_Iosb@H@std@@2W4_Fmtflags@12@B DD 04000H	; std::_Iosb<int>::boolalpha
CONST	ENDS
;	COMDAT ?is_modulo@_Num_float_base@std@@2_NB
CONST	SEGMENT
?is_modulo@_Num_float_base@std@@2_NB DB 00H		; std::_Num_float_base::is_modulo
CONST	ENDS
;	COMDAT ?hexfloat@?$_Iosb@H@std@@2W4_Fmtflags@12@B
CONST	SEGMENT
?hexfloat@?$_Iosb@H@std@@2W4_Fmtflags@12@B DD 03000H	; std::_Iosb<int>::hexfloat
CONST	ENDS
;	COMDAT ?is_integer@_Num_float_base@std@@2_NB
CONST	SEGMENT
?is_integer@_Num_float_base@std@@2_NB DB 00H		; std::_Num_float_base::is_integer
CONST	ENDS
;	COMDAT ?fixed@?$_Iosb@H@std@@2W4_Fmtflags@12@B
CONST	SEGMENT
?fixed@?$_Iosb@H@std@@2W4_Fmtflags@12@B DD 02000H	; std::_Iosb<int>::fixed
CONST	ENDS
;	COMDAT ?is_iec559@_Num_float_base@std@@2_NB
CONST	SEGMENT
?is_iec559@_Num_float_base@std@@2_NB DB 01H		; std::_Num_float_base::is_iec559
CONST	ENDS
;	COMDAT ?scientific@?$_Iosb@H@std@@2W4_Fmtflags@12@B
CONST	SEGMENT
?scientific@?$_Iosb@H@std@@2W4_Fmtflags@12@B DD 01000H	; std::_Iosb<int>::scientific
CONST	ENDS
;	COMDAT ?is_exact@_Num_float_base@std@@2_NB
CONST	SEGMENT
?is_exact@_Num_float_base@std@@2_NB DB 00H		; std::_Num_float_base::is_exact
CONST	ENDS
;	COMDAT ?hex@?$_Iosb@H@std@@2W4_Fmtflags@12@B
CONST	SEGMENT
?hex@?$_Iosb@H@std@@2W4_Fmtflags@12@B DD 0800H		; std::_Iosb<int>::hex
CONST	ENDS
;	COMDAT ?is_bounded@_Num_float_base@std@@2_NB
CONST	SEGMENT
?is_bounded@_Num_float_base@std@@2_NB DB 01H		; std::_Num_float_base::is_bounded
CONST	ENDS
;	COMDAT ?oct@?$_Iosb@H@std@@2W4_Fmtflags@12@B
CONST	SEGMENT
?oct@?$_Iosb@H@std@@2W4_Fmtflags@12@B DD 0400H		; std::_Iosb<int>::oct
CONST	ENDS
;	COMDAT ?has_signaling_NaN@_Num_float_base@std@@2_NB
CONST	SEGMENT
?has_signaling_NaN@_Num_float_base@std@@2_NB DB 01H	; std::_Num_float_base::has_signaling_NaN
CONST	ENDS
;	COMDAT ?dec@?$_Iosb@H@std@@2W4_Fmtflags@12@B
CONST	SEGMENT
?dec@?$_Iosb@H@std@@2W4_Fmtflags@12@B DD 0200H		; std::_Iosb<int>::dec
CONST	ENDS
;	COMDAT ?has_quiet_NaN@_Num_float_base@std@@2_NB
CONST	SEGMENT
?has_quiet_NaN@_Num_float_base@std@@2_NB DB 01H		; std::_Num_float_base::has_quiet_NaN
CONST	ENDS
;	COMDAT ?internal@?$_Iosb@H@std@@2W4_Fmtflags@12@B
CONST	SEGMENT
?internal@?$_Iosb@H@std@@2W4_Fmtflags@12@B DD 0100H	; std::_Iosb<int>::internal
CONST	ENDS
;	COMDAT ?has_infinity@_Num_float_base@std@@2_NB
CONST	SEGMENT
?has_infinity@_Num_float_base@std@@2_NB DB 01H		; std::_Num_float_base::has_infinity
CONST	ENDS
;	COMDAT ?_G2@?$_Ratio_multiply2@U?$ratio@$00$00@std@@U12@@std@@2_JB
CONST	SEGMENT
?_G2@?$_Ratio_multiply2@U?$ratio@$00$00@std@@U12@@std@@2_JB DQ 0000000000000001H ; std::_Ratio_multiply2<std::ratio<1,1>,std::ratio<1,1> >::_G2
CONST	ENDS
;	COMDAT ?right@?$_Iosb@H@std@@2W4_Fmtflags@12@B
CONST	SEGMENT
?right@?$_Iosb@H@std@@2W4_Fmtflags@12@B DD 080H		; std::_Iosb<int>::right
CONST	ENDS
;	COMDAT ?_G1@?$_Ratio_multiply2@U?$ratio@$00$00@std@@U12@@std@@2_JB
CONST	SEGMENT
?_G1@?$_Ratio_multiply2@U?$ratio@$00$00@std@@U12@@std@@2_JB DQ 0000000000000001H ; std::_Ratio_multiply2<std::ratio<1,1>,std::ratio<1,1> >::_G1
CONST	ENDS
;	COMDAT ?has_denorm_loss@_Num_float_base@std@@2_NB
CONST	SEGMENT
?has_denorm_loss@_Num_float_base@std@@2_NB DB 01H	; std::_Num_float_base::has_denorm_loss
CONST	ENDS
;	COMDAT ?left@?$_Iosb@H@std@@2W4_Fmtflags@12@B
CONST	SEGMENT
?left@?$_Iosb@H@std@@2W4_Fmtflags@12@B DD 040H		; std::_Iosb<int>::left
CONST	ENDS
;	COMDAT ?has_denorm@_Num_float_base@std@@2W4float_denorm_style@2@B
CONST	SEGMENT
?has_denorm@_Num_float_base@std@@2W4float_denorm_style@2@B DD 01H ; std::_Num_float_base::has_denorm
CONST	ENDS
;	COMDAT ?showpos@?$_Iosb@H@std@@2W4_Fmtflags@12@B
CONST	SEGMENT
?showpos@?$_Iosb@H@std@@2W4_Fmtflags@12@B DD 020H	; std::_Iosb<int>::showpos
CONST	ENDS
;	COMDAT ?showpoint@?$_Iosb@H@std@@2W4_Fmtflags@12@B
CONST	SEGMENT
?showpoint@?$_Iosb@H@std@@2W4_Fmtflags@12@B DD 010H	; std::_Iosb<int>::showpoint
CONST	ENDS
;	COMDAT ?showbase@?$_Iosb@H@std@@2W4_Fmtflags@12@B
CONST	SEGMENT
?showbase@?$_Iosb@H@std@@2W4_Fmtflags@12@B DD 08H	; std::_Iosb<int>::showbase
CONST	ENDS
;	COMDAT ?uppercase@?$_Iosb@H@std@@2W4_Fmtflags@12@B
CONST	SEGMENT
?uppercase@?$_Iosb@H@std@@2W4_Fmtflags@12@B DD 04H	; std::_Iosb<int>::uppercase
CONST	ENDS
;	COMDAT ?radix@_Num_int_base@std@@2HB
CONST	SEGMENT
?radix@_Num_int_base@std@@2HB DD 02H			; std::_Num_int_base::radix
CONST	ENDS
;	COMDAT ?den@?$ratio@$0DLJKMKAA@$00@std@@2_JB
CONST	SEGMENT
?den@?$ratio@$0DLJKMKAA@$00@std@@2_JB DQ 0000000000000001H ; std::ratio<1000000000,1>::den
CONST	ENDS
;	COMDAT ?is_specialized@_Num_int_base@std@@2_NB
CONST	SEGMENT
?is_specialized@_Num_int_base@std@@2_NB DB 01H		; std::_Num_int_base::is_specialized
CONST	ENDS
;	COMDAT ?unitbuf@?$_Iosb@H@std@@2W4_Fmtflags@12@B
CONST	SEGMENT
?unitbuf@?$_Iosb@H@std@@2W4_Fmtflags@12@B DD 02H	; std::_Iosb<int>::unitbuf
CONST	ENDS
;	COMDAT ?num@?$ratio@$0DLJKMKAA@$00@std@@2_JB
CONST	SEGMENT
?num@?$ratio@$0DLJKMKAA@$00@std@@2_JB DQ 000000003b9aca00H ; std::ratio<1000000000,1>::num
CONST	ENDS
;	COMDAT ?skipws@?$_Iosb@H@std@@2W4_Fmtflags@12@B
CONST	SEGMENT
?skipws@?$_Iosb@H@std@@2W4_Fmtflags@12@B DD 01H		; std::_Iosb<int>::skipws
CONST	ENDS
;	COMDAT ?is_modulo@_Num_int_base@std@@2_NB
CONST	SEGMENT
?is_modulo@_Num_int_base@std@@2_NB DB 01H		; std::_Num_int_base::is_modulo
CONST	ENDS
;	COMDAT ?is_integer@_Num_int_base@std@@2_NB
CONST	SEGMENT
?is_integer@_Num_int_base@std@@2_NB DB 01H		; std::_Num_int_base::is_integer
CONST	ENDS
;	COMDAT ?is_exact@_Num_int_base@std@@2_NB
CONST	SEGMENT
?is_exact@_Num_int_base@std@@2_NB DB 01H		; std::_Num_int_base::is_exact
CONST	ENDS
;	COMDAT ?is_bounded@_Num_int_base@std@@2_NB
CONST	SEGMENT
?is_bounded@_Num_int_base@std@@2_NB DB 01H		; std::_Num_int_base::is_bounded
CONST	ENDS
;	COMDAT ?_G2@?$_Ratio_multiply2@U?$ratio@$00$00@std@@U?$ratio@$0DLJKMKAA@$00@2@@std@@2_JB
CONST	SEGMENT
?_G2@?$_Ratio_multiply2@U?$ratio@$00$00@std@@U?$ratio@$0DLJKMKAA@$00@2@@std@@2_JB DQ 0000000000000001H ; std::_Ratio_multiply2<std::ratio<1,1>,std::ratio<1000000000,1> >::_G2
CONST	ENDS
;	COMDAT ?radix@_Num_base@std@@2HB
CONST	SEGMENT
?radix@_Num_base@std@@2HB DD 00H			; std::_Num_base::radix
CONST	ENDS
;	COMDAT ?min_exponent10@_Num_base@std@@2HB
CONST	SEGMENT
?min_exponent10@_Num_base@std@@2HB DD 00H		; std::_Num_base::min_exponent10
CONST	ENDS
;	COMDAT ?none@?$_Locbase@H@std@@2HB
CONST	SEGMENT
?none@?$_Locbase@H@std@@2HB DD 00H			; std::_Locbase<int>::none
CONST	ENDS
;	COMDAT ?min_exponent@_Num_base@std@@2HB
CONST	SEGMENT
?min_exponent@_Num_base@std@@2HB DD 00H			; std::_Num_base::min_exponent
CONST	ENDS
;	COMDAT ?value@?$_Gcd@$0DLJKMKAA@$00@std@@2_JB
CONST	SEGMENT
?value@?$_Gcd@$0DLJKMKAA@$00@std@@2_JB DQ 0000000000000001H ; std::_Gcd<1000000000,1>::value
CONST	ENDS
;	COMDAT ?all@?$_Locbase@H@std@@2HB
CONST	SEGMENT
?all@?$_Locbase@H@std@@2HB DD 03fH			; std::_Locbase<int>::all
CONST	ENDS
;	COMDAT ?max_exponent10@_Num_base@std@@2HB
CONST	SEGMENT
?max_exponent10@_Num_base@std@@2HB DD 00H		; std::_Num_base::max_exponent10
CONST	ENDS
;	COMDAT ?messages@?$_Locbase@H@std@@2HB
CONST	SEGMENT
?messages@?$_Locbase@H@std@@2HB DD 020H			; std::_Locbase<int>::messages
CONST	ENDS
;	COMDAT ?time@?$_Locbase@H@std@@2HB
CONST	SEGMENT
?time@?$_Locbase@H@std@@2HB DD 010H			; std::_Locbase<int>::time
CONST	ENDS
;	COMDAT ?max_exponent@_Num_base@std@@2HB
CONST	SEGMENT
?max_exponent@_Num_base@std@@2HB DD 00H			; std::_Num_base::max_exponent
CONST	ENDS
;	COMDAT ?numeric@?$_Locbase@H@std@@2HB
CONST	SEGMENT
?numeric@?$_Locbase@H@std@@2HB DD 08H			; std::_Locbase<int>::numeric
CONST	ENDS
;	COMDAT ?value@?$_GcdX@$0DLJKMKAA@$00@std@@2_JB
CONST	SEGMENT
?value@?$_GcdX@$0DLJKMKAA@$00@std@@2_JB DQ 0000000000000001H ; std::_GcdX<1000000000,1>::value
CONST	ENDS
;	COMDAT ?max_digits10@_Num_base@std@@2HB
CONST	SEGMENT
?max_digits10@_Num_base@std@@2HB DD 00H			; std::_Num_base::max_digits10
CONST	ENDS
;	COMDAT ?monetary@?$_Locbase@H@std@@2HB
CONST	SEGMENT
?monetary@?$_Locbase@H@std@@2HB DD 04H			; std::_Locbase<int>::monetary
CONST	ENDS
;	COMDAT ?ctype@?$_Locbase@H@std@@2HB
CONST	SEGMENT
?ctype@?$_Locbase@H@std@@2HB DD 02H			; std::_Locbase<int>::ctype
CONST	ENDS
;	COMDAT ?digits10@_Num_base@std@@2HB
CONST	SEGMENT
?digits10@_Num_base@std@@2HB DD 00H			; std::_Num_base::digits10
CONST	ENDS
;	COMDAT ?collate@?$_Locbase@H@std@@2HB
CONST	SEGMENT
?collate@?$_Locbase@H@std@@2HB DD 01H			; std::_Locbase<int>::collate
CONST	ENDS
;	COMDAT ?digits@_Num_base@std@@2HB
CONST	SEGMENT
?digits@_Num_base@std@@2HB DD 00H			; std::_Num_base::digits
CONST	ENDS
;	COMDAT ?_G1@?$_Ratio_multiply2@U?$ratio@$00$00@std@@U?$ratio@$0DLJKMKAA@$00@2@@std@@2_JB
CONST	SEGMENT
?_G1@?$_Ratio_multiply2@U?$ratio@$00$00@std@@U?$ratio@$0DLJKMKAA@$00@2@@std@@2_JB DQ 0000000000000001H ; std::_Ratio_multiply2<std::ratio<1,1>,std::ratio<1000000000,1> >::_G1
CONST	ENDS
;	COMDAT ?round_style@_Num_base@std@@2W4float_round_style@2@B
CONST	SEGMENT
?round_style@_Num_base@std@@2W4float_round_style@2@B DD 00H ; std::_Num_base::round_style
CONST	ENDS
;	COMDAT ?traps@_Num_base@std@@2_NB
CONST	SEGMENT
?traps@_Num_base@std@@2_NB DB 00H			; std::_Num_base::traps
CONST	ENDS
;	COMDAT ?value@?$_Always_false@_J@std@@2_NB
CONST	SEGMENT
?value@?$_Always_false@_J@std@@2_NB DB 00H		; std::_Always_false<__int64>::value
CONST	ENDS
;	COMDAT ?tinyness_before@_Num_base@std@@2_NB
CONST	SEGMENT
?tinyness_before@_Num_base@std@@2_NB DB 00H		; std::_Num_base::tinyness_before
CONST	ENDS
;	COMDAT ?is_specialized@_Num_base@std@@2_NB
CONST	SEGMENT
?is_specialized@_Num_base@std@@2_NB DB 00H		; std::_Num_base::is_specialized
CONST	ENDS
;	COMDAT ?is_signed@_Num_base@std@@2_NB
CONST	SEGMENT
?is_signed@_Num_base@std@@2_NB DB 00H			; std::_Num_base::is_signed
CONST	ENDS
;	COMDAT ?is_modulo@_Num_base@std@@2_NB
CONST	SEGMENT
?is_modulo@_Num_base@std@@2_NB DB 00H			; std::_Num_base::is_modulo
CONST	ENDS
;	COMDAT ?is_integer@_Num_base@std@@2_NB
CONST	SEGMENT
?is_integer@_Num_base@std@@2_NB DB 00H			; std::_Num_base::is_integer
CONST	ENDS
;	COMDAT ?is_steady@system_clock@chrono@std@@2_NB
CONST	SEGMENT
?is_steady@system_clock@chrono@std@@2_NB DB 00H		; std::chrono::system_clock::is_steady
CONST	ENDS
;	COMDAT ?is_monotonic@system_clock@chrono@std@@2_NB
CONST	SEGMENT
?is_monotonic@system_clock@chrono@std@@2_NB DB 00H	; std::chrono::system_clock::is_monotonic
CONST	ENDS
;	COMDAT ?is_iec559@_Num_base@std@@2_NB
CONST	SEGMENT
?is_iec559@_Num_base@std@@2_NB DB 00H			; std::_Num_base::is_iec559
CONST	ENDS
;	COMDAT ?is_exact@_Num_base@std@@2_NB
CONST	SEGMENT
?is_exact@_Num_base@std@@2_NB DB 00H			; std::_Num_base::is_exact
CONST	ENDS
;	COMDAT ?is_bounded@_Num_base@std@@2_NB
CONST	SEGMENT
?is_bounded@_Num_base@std@@2_NB DB 00H			; std::_Num_base::is_bounded
CONST	ENDS
;	COMDAT ?has_signaling_NaN@_Num_base@std@@2_NB
CONST	SEGMENT
?has_signaling_NaN@_Num_base@std@@2_NB DB 00H		; std::_Num_base::has_signaling_NaN
CONST	ENDS
;	COMDAT ?has_quiet_NaN@_Num_base@std@@2_NB
CONST	SEGMENT
?has_quiet_NaN@_Num_base@std@@2_NB DB 00H		; std::_Num_base::has_quiet_NaN
CONST	ENDS
;	COMDAT ?has_infinity@_Num_base@std@@2_NB
CONST	SEGMENT
?has_infinity@_Num_base@std@@2_NB DB 00H		; std::_Num_base::has_infinity
CONST	ENDS
;	COMDAT ?has_denorm_loss@_Num_base@std@@2_NB
CONST	SEGMENT
?has_denorm_loss@_Num_base@std@@2_NB DB 00H		; std::_Num_base::has_denorm_loss
CONST	ENDS
;	COMDAT ?has_denorm@_Num_base@std@@2W4float_denorm_style@2@B
CONST	SEGMENT
?has_denorm@_Num_base@std@@2W4float_denorm_style@2@B DD 00H ; std::_Num_base::has_denorm
CONST	ENDS
;	COMDAT ?_G2@?$_Ratio_multiply2@U?$ratio@$0GE@$00@std@@U?$ratio@$00$0DLJKMKAA@@2@@std@@2_JB
CONST	SEGMENT
?_G2@?$_Ratio_multiply2@U?$ratio@$0GE@$00@std@@U?$ratio@$00$0DLJKMKAA@@2@@std@@2_JB DQ 0000000000000001H ; std::_Ratio_multiply2<std::ratio<100,1>,std::ratio<1,1000000000> >::_G2
CONST	ENDS
;	COMDAT ?value@?$_Gcd@$00$00@std@@2_JB
CONST	SEGMENT
?value@?$_Gcd@$00$00@std@@2_JB DQ 0000000000000001H	; std::_Gcd<1,1>::value
CONST	ENDS
;	COMDAT ?value@?$_GcdX@$00$00@std@@2_JB
CONST	SEGMENT
?value@?$_GcdX@$00$00@std@@2_JB DQ 0000000000000001H	; std::_GcdX<1,1>::value
CONST	ENDS
;	COMDAT ?value@?$_GcdX@$00$0A@@std@@2_JB
CONST	SEGMENT
?value@?$_GcdX@$00$0A@@std@@2_JB DQ 0000000000000001H	; std::_GcdX<1,0>::value
CONST	ENDS
;	COMDAT ?_G2@?$_Ratio_multiply2@U?$ratio@$00$0DLJKMKAA@@std@@U?$ratio@$00$00@2@@std@@2_JB
CONST	SEGMENT
?_G2@?$_Ratio_multiply2@U?$ratio@$00$0DLJKMKAA@@std@@U?$ratio@$00$00@2@@std@@2_JB DQ 0000000000000001H ; std::_Ratio_multiply2<std::ratio<1,1000000000>,std::ratio<1,1> >::_G2
CONST	ENDS
;	COMDAT ?_G1@?$_Ratio_multiply2@U?$ratio@$00$0DLJKMKAA@@std@@U?$ratio@$00$00@2@@std@@2_JB
CONST	SEGMENT
?_G1@?$_Ratio_multiply2@U?$ratio@$00$0DLJKMKAA@@std@@U?$ratio@$00$00@2@@std@@2_JB DQ 0000000000000001H ; std::_Ratio_multiply2<std::ratio<1,1000000000>,std::ratio<1,1> >::_G1
CONST	ENDS
;	COMDAT ?value@?$_Abs@$00@std@@2_JB
CONST	SEGMENT
?value@?$_Abs@$00@std@@2_JB DQ 0000000000000001H	; std::_Abs<1>::value
CONST	ENDS
;	COMDAT ?_G1@?$_Ratio_multiply2@U?$ratio@$0GE@$00@std@@U?$ratio@$00$0DLJKMKAA@@2@@std@@2_JB
CONST	SEGMENT
?_G1@?$_Ratio_multiply2@U?$ratio@$0GE@$00@std@@U?$ratio@$00$0DLJKMKAA@@2@@std@@2_JB DQ 0000000000000064H ; std::_Ratio_multiply2<std::ratio<100,1>,std::ratio<1,1000000000> >::_G1
CONST	ENDS
;	COMDAT ?value@?$_Gcd@$0GE@$0DLJKMKAA@@std@@2_JB
CONST	SEGMENT
?value@?$_Gcd@$0GE@$0DLJKMKAA@@std@@2_JB DQ 0000000000000064H ; std::_Gcd<100,1000000000>::value
CONST	ENDS
;	COMDAT ?_STATE_CALLED@_CancellationTokenRegistration@details@Concurrency@@0JB
CONST	SEGMENT
?_STATE_CALLED@_CancellationTokenRegistration@details@Concurrency@@0JB DD 03H ; Concurrency::details::_CancellationTokenRegistration::_STATE_CALLED
CONST	ENDS
;	COMDAT ?_STATE_SYNCHRONIZE@_CancellationTokenRegistration@details@Concurrency@@0JB
CONST	SEGMENT
?_STATE_SYNCHRONIZE@_CancellationTokenRegistration@details@Concurrency@@0JB DD 02H ; Concurrency::details::_CancellationTokenRegistration::_STATE_SYNCHRONIZE
CONST	ENDS
;	COMDAT ?_STATE_DEFER_DELETE@_CancellationTokenRegistration@details@Concurrency@@0JB
CONST	SEGMENT
?_STATE_DEFER_DELETE@_CancellationTokenRegistration@details@Concurrency@@0JB DD 01H ; Concurrency::details::_CancellationTokenRegistration::_STATE_DEFER_DELETE
CONST	ENDS
;	COMDAT ?value@?$_GcdX@$0GE@$0DLJKMKAA@@std@@2_JB
CONST	SEGMENT
?value@?$_GcdX@$0GE@$0DLJKMKAA@@std@@2_JB DQ 0000000000000064H ; std::_GcdX<100,1000000000>::value
CONST	ENDS
;	COMDAT ?_STATE_CLEAR@_CancellationTokenRegistration@details@Concurrency@@0JB
CONST	SEGMENT
?_STATE_CLEAR@_CancellationTokenRegistration@details@Concurrency@@0JB DD 00H ; Concurrency::details::_CancellationTokenRegistration::_STATE_CLEAR
CONST	ENDS
;	COMDAT ?value@?$_GcdX@$0DLJKMKAA@$0GE@@std@@2_JB
CONST	SEGMENT
?value@?$_GcdX@$0DLJKMKAA@$0GE@@std@@2_JB DQ 0000000000000064H ; std::_GcdX<1000000000,100>::value
CONST	ENDS
;	COMDAT ?value@?$_GcdX@$0GE@$0A@@std@@2_JB
CONST	SEGMENT
?value@?$_GcdX@$0GE@$0A@@std@@2_JB DQ 0000000000000064H	; std::_GcdX<100,0>::value
CONST	ENDS
;	COMDAT ?den@?$ratio@$00$0DLJKMKAA@@std@@2_JB
CONST	SEGMENT
?den@?$ratio@$00$0DLJKMKAA@@std@@2_JB DQ 000000003b9aca00H ; std::ratio<1,1000000000>::den
CONST	ENDS
;	COMDAT ?value@?$_Is_duration@V?$duration@_JU?$ratio@$00$00@std@@@chrono@std@@@chrono@std@@2_NB
CONST	SEGMENT
?value@?$_Is_duration@V?$duration@_JU?$ratio@$00$00@std@@@chrono@std@@@chrono@std@@2_NB DB 01H ; std::chrono::_Is_duration<std::chrono::duration<__int64,std::ratio<1,1> > >::value
CONST	ENDS
;	COMDAT ?num@?$ratio@$00$0DLJKMKAA@@std@@2_JB
CONST	SEGMENT
?num@?$ratio@$00$0DLJKMKAA@@std@@2_JB DQ 0000000000000001H ; std::ratio<1,1000000000>::num
CONST	ENDS
;	COMDAT ?value@?$_Gcd@$00$0DLJKMKAA@@std@@2_JB
CONST	SEGMENT
?value@?$_Gcd@$00$0DLJKMKAA@@std@@2_JB DQ 0000000000000001H ; std::_Gcd<1,1000000000>::value
CONST	ENDS
;	COMDAT ?value@?$_Abs@$0DLJKMKAA@@std@@2_JB
CONST	SEGMENT
?value@?$_Abs@$0DLJKMKAA@@std@@2_JB DQ 000000003b9aca00H ; std::_Abs<1000000000>::value
CONST	ENDS
;	COMDAT ?value@?$_GcdX@$00$0DLJKMKAA@@std@@2_JB
CONST	SEGMENT
?value@?$_GcdX@$00$0DLJKMKAA@@std@@2_JB DQ 0000000000000001H ; std::_GcdX<1,1000000000>::value
CONST	ENDS
;	COMDAT ?value@?$_Abs@$0GE@@std@@2_JB
CONST	SEGMENT
?value@?$_Abs@$0GE@@std@@2_JB DQ 0000000000000064H	; std::_Abs<100>::value
CONST	ENDS
;	COMDAT ?value@?$_Is_ratio@U?$ratio@$00$0DLJKMKAA@@std@@@chrono@std@@2_NB
CONST	SEGMENT
?value@?$_Is_ratio@U?$ratio@$00$0DLJKMKAA@@std@@@chrono@std@@2_NB DB 01H ; std::chrono::_Is_ratio<std::ratio<1,1000000000> >::value
CONST	ENDS
;	COMDAT ?value@?$integral_constant@H$0A@@std@@2HB
CONST	SEGMENT
?value@?$integral_constant@H$0A@@std@@2HB DD 00H	; std::integral_constant<int,0>::value
CONST	ENDS
;	COMDAT ?value@?$_Is_duration@V?$duration@_JU?$ratio@$00$0DLJKMKAA@@std@@@chrono@std@@@chrono@std@@2_NB
CONST	SEGMENT
?value@?$_Is_duration@V?$duration@_JU?$ratio@$00$0DLJKMKAA@@std@@@chrono@std@@@chrono@std@@2_NB DB 01H ; std::chrono::_Is_duration<std::chrono::duration<__int64,std::ratio<1,1000000000> > >::value
CONST	ENDS
;	COMDAT ?value@?$_Sizeof@HU_Nil@std@@U12@U12@U12@U12@U12@U12@@std@@2IB
CONST	SEGMENT
?value@?$_Sizeof@HU_Nil@std@@U12@U12@U12@U12@U12@U12@@std@@2IB DD 01H ; std::_Sizeof<int,std::_Nil,std::_Nil,std::_Nil,std::_Nil,std::_Nil,std::_Nil,std::_Nil>::value
CONST	ENDS
;	COMDAT ?min_exponent10@?$numeric_limits@O@std@@2HB
CONST	SEGMENT
?min_exponent10@?$numeric_limits@O@std@@2HB DD 0fffffecdH ; std::numeric_limits<long double>::min_exponent10
CONST	ENDS
;	COMDAT ?den@?$ratio@$0PECEA@$00@std@@2_JB
CONST	SEGMENT
?den@?$ratio@$0PECEA@$00@std@@2_JB DQ 0000000000000001H	; std::ratio<1000000,1>::den
CONST	ENDS
;	COMDAT ?num@?$ratio@$0PECEA@$00@std@@2_JB
CONST	SEGMENT
?num@?$ratio@$0PECEA@$00@std@@2_JB DQ 00000000000f4240H	; std::ratio<1000000,1>::num
CONST	ENDS
;	COMDAT ?min_exponent@?$numeric_limits@O@std@@2HB
CONST	SEGMENT
?min_exponent@?$numeric_limits@O@std@@2HB DD 0fffffc03H	; std::numeric_limits<long double>::min_exponent
CONST	ENDS
;	COMDAT ?max_exponent10@?$numeric_limits@O@std@@2HB
CONST	SEGMENT
?max_exponent10@?$numeric_limits@O@std@@2HB DD 0134H	; std::numeric_limits<long double>::max_exponent10
CONST	ENDS
;	COMDAT ?value@?$_Gcd@$0PECEA@$00@std@@2_JB
CONST	SEGMENT
?value@?$_Gcd@$0PECEA@$00@std@@2_JB DQ 0000000000000001H ; std::_Gcd<1000000,1>::value
CONST	ENDS
;	COMDAT ?max_exponent@?$numeric_limits@O@std@@2HB
CONST	SEGMENT
?max_exponent@?$numeric_limits@O@std@@2HB DD 0400H	; std::numeric_limits<long double>::max_exponent
CONST	ENDS
PUBLIC	??2@YAPAXIPAX@Z					; operator new
PUBLIC	??3@YAXPAX0@Z					; operator delete
PUBLIC	?length@?$char_traits@D@std@@SAIPBD@Z		; std::char_traits<char>::length
PUBLIC	?copy@?$char_traits@D@std@@SAPADPADPBDI@Z	; std::char_traits<char>::copy
PUBLIC	?move@?$char_traits@D@std@@SAPADPADPBDI@Z	; std::char_traits<char>::move
PUBLIC	?assign@?$char_traits@D@std@@SAXAADABD@Z	; std::char_traits<char>::assign
PUBLIC	?eq_int_type@?$char_traits@D@std@@SA_NABH0@Z	; std::char_traits<char>::eq_int_type
PUBLIC	?eof@?$char_traits@D@std@@SAHXZ			; std::char_traits<char>::eof
PUBLIC	??0_Container_proxy@std@@QAE@XZ			; std::_Container_proxy::_Container_proxy
PUBLIC	??0_Iterator_base12@std@@QAE@XZ			; std::_Iterator_base12::_Iterator_base12
PUBLIC	??0_Iterator_base12@std@@QAE@ABU01@@Z		; std::_Iterator_base12::_Iterator_base12
PUBLIC	??4_Iterator_base12@std@@QAEAAU01@ABU01@@Z	; std::_Iterator_base12::operator=
PUBLIC	??1_Iterator_base12@std@@QAE@XZ			; std::_Iterator_base12::~_Iterator_base12
PUBLIC	?_Adopt@_Iterator_base12@std@@QAEXPBU_Container_base12@2@@Z ; std::_Iterator_base12::_Adopt
PUBLIC	?_Clrcont@_Iterator_base12@std@@QAEXXZ		; std::_Iterator_base12::_Clrcont
PUBLIC	?_Getcont@_Iterator_base12@std@@QBEPBU_Container_base12@2@XZ ; std::_Iterator_base12::_Getcont
PUBLIC	?_Getpnext@_Iterator_base12@std@@QAEPAPAU12@XZ	; std::_Iterator_base12::_Getpnext
PUBLIC	?_Orphan_me@_Iterator_base12@std@@QAEXXZ	; std::_Iterator_base12::_Orphan_me
PUBLIC	?select_on_container_copy_construction@?$allocator@D@std@@QBE?AV12@XZ ; std::allocator<char>::select_on_container_copy_construction
PUBLIC	??0?$allocator@D@std@@QAE@XZ			; std::allocator<char>::allocator<char>
PUBLIC	??0?$allocator@D@std@@QAE@ABV01@@Z		; std::allocator<char>::allocator<char>
PUBLIC	?deallocate@?$allocator@D@std@@QAEXPADI@Z	; std::allocator<char>::deallocate
PUBLIC	?allocate@?$allocator@D@std@@QAEPADI@Z		; std::allocator<char>::allocate
PUBLIC	?max_size@?$allocator@D@std@@QBEIXZ		; std::allocator<char>::max_size
PUBLIC	?max_size@?$allocator_traits@V?$allocator@D@std@@@std@@SAIABV?$allocator@D@2@@Z ; std::allocator_traits<std::allocator<char> >::max_size
PUBLIC	?select_on_container_copy_construction@?$allocator_traits@V?$allocator@D@std@@@std@@SA?AV?$allocator@D@2@ABV32@@Z ; std::allocator_traits<std::allocator<char> >::select_on_container_copy_construction
PUBLIC	?select_on_container_copy_construction@?$_Wrap_alloc@V?$allocator@D@std@@@std@@QBE?AU12@XZ ; std::_Wrap_alloc<std::allocator<char> >::select_on_container_copy_construction
PUBLIC	??0?$_Wrap_alloc@V?$allocator@D@std@@@std@@QAE@XZ ; std::_Wrap_alloc<std::allocator<char> >::_Wrap_alloc<std::allocator<char> >
PUBLIC	??0?$_Wrap_alloc@V?$allocator@D@std@@@std@@QAE@ABV?$allocator@D@1@@Z ; std::_Wrap_alloc<std::allocator<char> >::_Wrap_alloc<std::allocator<char> >
PUBLIC	?allocate@?$_Wrap_alloc@V?$allocator@D@std@@@std@@QAEPADI@Z ; std::_Wrap_alloc<std::allocator<char> >::allocate
PUBLIC	?deallocate@?$_Wrap_alloc@V?$allocator@D@std@@@std@@QAEXPADI@Z ; std::_Wrap_alloc<std::allocator<char> >::deallocate
PUBLIC	?max_size@?$_Wrap_alloc@V?$allocator@D@std@@@std@@QBEIXZ ; std::_Wrap_alloc<std::allocator<char> >::max_size
PUBLIC	??0?$_String_val@U?$_Simple_types@D@std@@@std@@QAE@XZ ; std::_String_val<std::_Simple_types<char> >::_String_val<std::_Simple_types<char> >
PUBLIC	?_Myptr@?$_String_val@U?$_Simple_types@D@std@@@std@@QAEPADXZ ; std::_String_val<std::_Simple_types<char> >::_Myptr
PUBLIC	?_Myptr@?$_String_val@U?$_Simple_types@D@std@@@std@@QBEPBDXZ ; std::_String_val<std::_Simple_types<char> >::_Myptr
PUBLIC	??1?$_String_val@U?$_Simple_types@D@std@@@std@@QAE@XZ ; std::_String_val<std::_Simple_types<char> >::~_String_val<std::_Simple_types<char> >
PUBLIC	??0?$_String_alloc@$0A@U?$_String_base_types@DV?$allocator@D@std@@@std@@@std@@QAE@ABV?$allocator@D@1@@Z ; std::_String_alloc<0,std::_String_base_types<char,std::allocator<char> > >::_String_alloc<0,std::_String_base_types<char,std::allocator<char> > >
PUBLIC	??1?$_String_alloc@$0A@U?$_String_base_types@DV?$allocator@D@std@@@std@@@std@@QAE@XZ ; std::_String_alloc<0,std::_String_base_types<char,std::allocator<char> > >::~_String_alloc<0,std::_String_base_types<char,std::allocator<char> > >
PUBLIC	?_Change_alloc@?$_String_alloc@$0A@U?$_String_base_types@DV?$allocator@D@std@@@std@@@std@@QAEXABU?$_Wrap_alloc@V?$allocator@D@std@@@2@@Z ; std::_String_alloc<0,std::_String_base_types<char,std::allocator<char> > >::_Change_alloc
PUBLIC	?_Alloc_proxy@?$_String_alloc@$0A@U?$_String_base_types@DV?$allocator@D@std@@@std@@@std@@QAEXXZ ; std::_String_alloc<0,std::_String_base_types<char,std::allocator<char> > >::_Alloc_proxy
PUBLIC	?_Free_proxy@?$_String_alloc@$0A@U?$_String_base_types@DV?$allocator@D@std@@@std@@@std@@QAEXXZ ; std::_String_alloc<0,std::_String_base_types<char,std::allocator<char> > >::_Free_proxy
PUBLIC	?_Getal@?$_String_alloc@$0A@U?$_String_base_types@DV?$allocator@D@std@@@std@@@std@@QBE?AU?$_Wrap_alloc@V?$allocator@D@std@@@2@XZ ; std::_String_alloc<0,std::_String_base_types<char,std::allocator<char> > >::_Getal
PUBLIC	??0?$basic_string@DU?$char_traits@D@std@@V?$allocator@D@2@@std@@QAE@ABV01@@Z ; std::basic_string<char,std::char_traits<char>,std::allocator<char> >::basic_string<char,std::char_traits<char>,std::allocator<char> >
PUBLIC	??0?$basic_string@DU?$char_traits@D@std@@V?$allocator@D@2@@std@@QAE@XZ ; std::basic_string<char,std::char_traits<char>,std::allocator<char> >::basic_string<char,std::char_traits<char>,std::allocator<char> >
PUBLIC	??0?$basic_string@DU?$char_traits@D@std@@V?$allocator@D@2@@std@@QAE@PBD@Z ; std::basic_string<char,std::char_traits<char>,std::allocator<char> >::basic_string<char,std::char_traits<char>,std::allocator<char> >
PUBLIC	??1?$basic_string@DU?$char_traits@D@std@@V?$allocator@D@2@@std@@QAE@XZ ; std::basic_string<char,std::char_traits<char>,std::allocator<char> >::~basic_string<char,std::char_traits<char>,std::allocator<char> >
PUBLIC	??4?$basic_string@DU?$char_traits@D@std@@V?$allocator@D@2@@std@@QAEAAV01@ABV01@@Z ; std::basic_string<char,std::char_traits<char>,std::allocator<char> >::operator=
PUBLIC	?assign@?$basic_string@DU?$char_traits@D@std@@V?$allocator@D@2@@std@@QAEAAV12@ABV12@@Z ; std::basic_string<char,std::char_traits<char>,std::allocator<char> >::assign
PUBLIC	?assign@?$basic_string@DU?$char_traits@D@std@@V?$allocator@D@2@@std@@QAEAAV12@ABV12@II@Z ; std::basic_string<char,std::char_traits<char>,std::allocator<char> >::assign
PUBLIC	?assign@?$basic_string@DU?$char_traits@D@std@@V?$allocator@D@2@@std@@QAEAAV12@PBDI@Z ; std::basic_string<char,std::char_traits<char>,std::allocator<char> >::assign
PUBLIC	?assign@?$basic_string@DU?$char_traits@D@std@@V?$allocator@D@2@@std@@QAEAAV12@PBD@Z ; std::basic_string<char,std::char_traits<char>,std::allocator<char> >::assign
PUBLIC	?erase@?$basic_string@DU?$char_traits@D@std@@V?$allocator@D@2@@std@@QAEAAV12@I@Z ; std::basic_string<char,std::char_traits<char>,std::allocator<char> >::erase
PUBLIC	?erase@?$basic_string@DU?$char_traits@D@std@@V?$allocator@D@2@@std@@QAEAAV12@II@Z ; std::basic_string<char,std::char_traits<char>,std::allocator<char> >::erase
PUBLIC	?c_str@?$basic_string@DU?$char_traits@D@std@@V?$allocator@D@2@@std@@QBEPBDXZ ; std::basic_string<char,std::char_traits<char>,std::allocator<char> >::c_str
PUBLIC	?size@?$basic_string@DU?$char_traits@D@std@@V?$allocator@D@2@@std@@QBEIXZ ; std::basic_string<char,std::char_traits<char>,std::allocator<char> >::size
PUBLIC	?max_size@?$basic_string@DU?$char_traits@D@std@@V?$allocator@D@2@@std@@QBEIXZ ; std::basic_string<char,std::char_traits<char>,std::allocator<char> >::max_size
PUBLIC	?_Copy@?$basic_string@DU?$char_traits@D@std@@V?$allocator@D@2@@std@@QAEXII@Z ; std::basic_string<char,std::char_traits<char>,std::allocator<char> >::_Copy
PUBLIC	?_Eos@?$basic_string@DU?$char_traits@D@std@@V?$allocator@D@2@@std@@QAEXI@Z ; std::basic_string<char,std::char_traits<char>,std::allocator<char> >::_Eos
PUBLIC	?_Grow@?$basic_string@DU?$char_traits@D@std@@V?$allocator@D@2@@std@@QAE_NI_N@Z ; std::basic_string<char,std::char_traits<char>,std::allocator<char> >::_Grow
PUBLIC	?_Inside@?$basic_string@DU?$char_traits@D@std@@V?$allocator@D@2@@std@@QAE_NPBD@Z ; std::basic_string<char,std::char_traits<char>,std::allocator<char> >::_Inside
PUBLIC	?_Tidy@?$basic_string@DU?$char_traits@D@std@@V?$allocator@D@2@@std@@QAEX_NI@Z ; std::basic_string<char,std::char_traits<char>,std::allocator<char> >::_Tidy
PUBLIC	?_Xlen@?$basic_string@DU?$char_traits@D@std@@V?$allocator@D@2@@std@@QBEXXZ ; std::basic_string<char,std::char_traits<char>,std::allocator<char> >::_Xlen
PUBLIC	?_Xran@?$basic_string@DU?$char_traits@D@std@@V?$allocator@D@2@@std@@QBEXXZ ; std::basic_string<char,std::char_traits<char>,std::allocator<char> >::_Xran
PUBLIC	??$_Debug_pointer@D@std@@YAXPBDPB_WI@Z		; std::_Debug_pointer<char>
PUBLIC	?generic_category@std@@YAABVerror_category@1@XZ	; std::generic_category
PUBLIC	?system_category@std@@YAABVerror_category@1@XZ	; std::system_category
PUBLIC	??0error_category@std@@QAE@XZ			; std::error_category::error_category
PUBLIC	??1error_category@std@@UAE@XZ			; std::error_category::~error_category
PUBLIC	?default_error_condition@error_category@std@@UBE?AVerror_condition@2@H@Z ; std::error_category::default_error_condition
PUBLIC	?equivalent@error_category@std@@UBE_NHABVerror_condition@2@@Z ; std::error_category::equivalent
PUBLIC	?equivalent@error_category@std@@UBE_NABVerror_code@2@H@Z ; std::error_category::equivalent
PUBLIC	??8error_category@std@@QBE_NABV01@@Z		; std::error_category::operator==
PUBLIC	??_Gerror_category@std@@UAEPAXI@Z		; std::error_category::`scalar deleting destructor'
PUBLIC	?value@error_code@std@@QBEHXZ			; std::error_code::value
PUBLIC	?category@error_code@std@@QBEABVerror_category@2@XZ ; std::error_code::category
PUBLIC	??0error_condition@std@@QAE@HABVerror_category@1@@Z ; std::error_condition::error_condition
PUBLIC	?value@error_condition@std@@QBEHXZ		; std::error_condition::value
PUBLIC	?category@error_condition@std@@QBEABVerror_category@2@XZ ; std::error_condition::category
PUBLIC	??8error_condition@std@@QBE_NABV01@@Z		; std::error_condition::operator==
PUBLIC	??0_Generic_error_category@std@@QAE@XZ		; std::_Generic_error_category::_Generic_error_category
PUBLIC	?name@_Generic_error_category@std@@UBEPBDXZ	; std::_Generic_error_category::name
PUBLIC	?message@_Generic_error_category@std@@UBE?AV?$basic_string@DU?$char_traits@D@std@@V?$allocator@D@2@@2@H@Z ; std::_Generic_error_category::message
PUBLIC	??1_Generic_error_category@std@@UAE@XZ		; std::_Generic_error_category::~_Generic_error_category
PUBLIC	??_G_Generic_error_category@std@@UAEPAXI@Z	; std::_Generic_error_category::`scalar deleting destructor'
PUBLIC	??0_Iostream_error_category@std@@QAE@XZ		; std::_Iostream_error_category::_Iostream_error_category
PUBLIC	?name@_Iostream_error_category@std@@UBEPBDXZ	; std::_Iostream_error_category::name
PUBLIC	?message@_Iostream_error_category@std@@UBE?AV?$basic_string@DU?$char_traits@D@std@@V?$allocator@D@2@@2@H@Z ; std::_Iostream_error_category::message
PUBLIC	??1_Iostream_error_category@std@@UAE@XZ		; std::_Iostream_error_category::~_Iostream_error_category
PUBLIC	??_G_Iostream_error_category@std@@UAEPAXI@Z	; std::_Iostream_error_category::`scalar deleting destructor'
PUBLIC	??0_System_error_category@std@@QAE@XZ		; std::_System_error_category::_System_error_category
PUBLIC	?name@_System_error_category@std@@UBEPBDXZ	; std::_System_error_category::name
PUBLIC	?message@_System_error_category@std@@UBE?AV?$basic_string@DU?$char_traits@D@std@@V?$allocator@D@2@@2@H@Z ; std::_System_error_category::message
PUBLIC	?default_error_condition@_System_error_category@std@@UBE?AVerror_condition@2@H@Z ; std::_System_error_category::default_error_condition
PUBLIC	??1_System_error_category@std@@UAE@XZ		; std::_System_error_category::~_System_error_category
PUBLIC	??_G_System_error_category@std@@UAEPAXI@Z	; std::_System_error_category::`scalar deleting destructor'
PUBLIC	?now@system_clock@chrono@std@@SA?AV?$time_point@Usystem_clock@chrono@std@@V?$duration@_JU?$ratio@$00$0JIJGIA@@std@@@23@@23@XZ ; std::chrono::system_clock::now
PUBLIC	?count@?$duration@_JU?$ratio@$00$0JIJGIA@@std@@@chrono@std@@QBE_JXZ ; std::chrono::duration<__int64,std::ratio<1,10000000> >::count
PUBLIC	??0?$time_point@Usystem_clock@chrono@std@@V?$duration@_JU?$ratio@$00$0JIJGIA@@std@@@23@@chrono@std@@QAE@ABV?$duration@_JU?$ratio@$00$0JIJGIA@@std@@@12@@Z ; std::chrono::time_point<std::chrono::system_clock,std::chrono::duration<__int64,std::ratio<1,10000000> > >::time_point<std::chrono::system_clock,std::chrono::duration<__int64,std::ratio<1,10000000> > >
PUBLIC	?time_since_epoch@?$time_point@Usystem_clock@chrono@std@@V?$duration@_JU?$ratio@$00$0JIJGIA@@std@@@23@@chrono@std@@QBE?AV?$duration@_JU?$ratio@$00$0JIJGIA@@std@@@23@XZ ; std::chrono::time_point<std::chrono::system_clock,std::chrono::duration<__int64,std::ratio<1,10000000> > >::time_since_epoch
PUBLIC	??$?0_J@?$duration@_JU?$ratio@$00$0JIJGIA@@std@@@chrono@std@@QAE@AB_JPAPAX@Z ; std::chrono::duration<__int64,std::ratio<1,10000000> >::duration<__int64,std::ratio<1,10000000> ><__int64>
PUBLIC	??0_Ignore@std@@QAE@XZ				; std::_Ignore::_Ignore
PUBLIC	?sleep_until@this_thread@std@@YAXPBUxtime@@@Z	; std::this_thread::sleep_until
PUBLIC	?getOppositeDirection@@YA?AW4Directions@@W41@@Z	; getOppositeDirection
PUBLIC	??$?6U?$char_traits@D@std@@@std@@YAAAV?$basic_ostream@DU?$char_traits@D@std@@@0@AAV10@D@Z ; std::operator<<<std::char_traits<char> >
PUBLIC	??$?6U?$char_traits@D@std@@@std@@YAAAV?$basic_ostream@DU?$char_traits@D@std@@@0@AAV10@PBD@Z ; std::operator<<<std::char_traits<char> >
PUBLIC	??0OnScreen@@QAE@XZ				; OnScreen::OnScreen
PUBLIC	??1OnScreen@@UAE@XZ				; OnScreen::~OnScreen
PUBLIC	?isInScreenBounds@OnScreen@@QAE_NXZ		; OnScreen::isInScreenBounds
PUBLIC	??0?$allocator@PAVOnScreen@@@std@@QAE@XZ	; std::allocator<OnScreen *>::allocator<OnScreen *>
PUBLIC	?deallocate@?$allocator@PAVOnScreen@@@std@@QAEXPAPAVOnScreen@@I@Z ; std::allocator<OnScreen *>::deallocate
PUBLIC	?allocate@?$allocator@PAVOnScreen@@@std@@QAEPAPAVOnScreen@@I@Z ; std::allocator<OnScreen *>::allocate
PUBLIC	?construct@?$allocator@PAVOnScreen@@@std@@QAEXPAPAVOnScreen@@ABQAV3@@Z ; std::allocator<OnScreen *>::construct
PUBLIC	?max_size@?$allocator@PAVOnScreen@@@std@@QBEIXZ	; std::allocator<OnScreen *>::max_size
PUBLIC	?max_size@?$allocator_traits@V?$allocator@PAVOnScreen@@@std@@@std@@SAIABV?$allocator@PAVOnScreen@@@2@@Z ; std::allocator_traits<std::allocator<OnScreen *> >::max_size
PUBLIC	??0?$_Wrap_alloc@V?$allocator@PAVOnScreen@@@std@@@std@@QAE@XZ ; std::_Wrap_alloc<std::allocator<OnScreen *> >::_Wrap_alloc<std::allocator<OnScreen *> >
PUBLIC	?allocate@?$_Wrap_alloc@V?$allocator@PAVOnScreen@@@std@@@std@@QAEPAPAVOnScreen@@I@Z ; std::_Wrap_alloc<std::allocator<OnScreen *> >::allocate
PUBLIC	?deallocate@?$_Wrap_alloc@V?$allocator@PAVOnScreen@@@std@@@std@@QAEXPAPAVOnScreen@@I@Z ; std::_Wrap_alloc<std::allocator<OnScreen *> >::deallocate
PUBLIC	?max_size@?$_Wrap_alloc@V?$allocator@PAVOnScreen@@@std@@@std@@QBEIXZ ; std::_Wrap_alloc<std::allocator<OnScreen *> >::max_size
PUBLIC	??0?$_Vector_val@U?$_Simple_types@PAVOnScreen@@@std@@@std@@QAE@XZ ; std::_Vector_val<std::_Simple_types<OnScreen *> >::_Vector_val<std::_Simple_types<OnScreen *> >
PUBLIC	??1?$_Vector_val@U?$_Simple_types@PAVOnScreen@@@std@@@std@@QAE@XZ ; std::_Vector_val<std::_Simple_types<OnScreen *> >::~_Vector_val<std::_Simple_types<OnScreen *> >
PUBLIC	??0?$_Vector_alloc@$0A@U?$_Vec_base_types@PAVOnScreen@@V?$allocator@PAVOnScreen@@@std@@@std@@@std@@QAE@ABV?$allocator@PAVOnScreen@@@1@@Z ; std::_Vector_alloc<0,std::_Vec_base_types<OnScreen *,std::allocator<OnScreen *> > >::_Vector_alloc<0,std::_Vec_base_types<OnScreen *,std::allocator<OnScreen *> > >
PUBLIC	??1?$_Vector_alloc@$0A@U?$_Vec_base_types@PAVOnScreen@@V?$allocator@PAVOnScreen@@@std@@@std@@@std@@QAE@XZ ; std::_Vector_alloc<0,std::_Vec_base_types<OnScreen *,std::allocator<OnScreen *> > >::~_Vector_alloc<0,std::_Vec_base_types<OnScreen *,std::allocator<OnScreen *> > >
PUBLIC	?_Alloc_proxy@?$_Vector_alloc@$0A@U?$_Vec_base_types@PAVOnScreen@@V?$allocator@PAVOnScreen@@@std@@@std@@@std@@QAEXXZ ; std::_Vector_alloc<0,std::_Vec_base_types<OnScreen *,std::allocator<OnScreen *> > >::_Alloc_proxy
PUBLIC	?_Free_proxy@?$_Vector_alloc@$0A@U?$_Vec_base_types@PAVOnScreen@@V?$allocator@PAVOnScreen@@@std@@@std@@@std@@QAEXXZ ; std::_Vector_alloc<0,std::_Vec_base_types<OnScreen *,std::allocator<OnScreen *> > >::_Free_proxy
PUBLIC	?_Getal@?$_Vector_alloc@$0A@U?$_Vec_base_types@PAVOnScreen@@V?$allocator@PAVOnScreen@@@std@@@std@@@std@@QBE?AU?$_Wrap_alloc@V?$allocator@PAVOnScreen@@@std@@@2@XZ ; std::_Vector_alloc<0,std::_Vec_base_types<OnScreen *,std::allocator<OnScreen *> > >::_Getal
PUBLIC	??0?$vector@PAVOnScreen@@V?$allocator@PAVOnScreen@@@std@@@std@@QAE@XZ ; std::vector<OnScreen *,std::allocator<OnScreen *> >::vector<OnScreen *,std::allocator<OnScreen *> >
PUBLIC	??1?$vector@PAVOnScreen@@V?$allocator@PAVOnScreen@@@std@@@std@@QAE@XZ ; std::vector<OnScreen *,std::allocator<OnScreen *> >::~vector<OnScreen *,std::allocator<OnScreen *> >
PUBLIC	?capacity@?$vector@PAVOnScreen@@V?$allocator@PAVOnScreen@@@std@@@std@@QBEIXZ ; std::vector<OnScreen *,std::allocator<OnScreen *> >::capacity
PUBLIC	?_Unused_capacity@?$vector@PAVOnScreen@@V?$allocator@PAVOnScreen@@@std@@@std@@QBEIXZ ; std::vector<OnScreen *,std::allocator<OnScreen *> >::_Unused_capacity
PUBLIC	?begin@?$vector@PAVOnScreen@@V?$allocator@PAVOnScreen@@@std@@@std@@QAE?AV?$_Vector_iterator@V?$_Vector_val@U?$_Simple_types@PAVOnScreen@@@std@@@std@@@2@XZ ; std::vector<OnScreen *,std::allocator<OnScreen *> >::begin
PUBLIC	?end@?$vector@PAVOnScreen@@V?$allocator@PAVOnScreen@@@std@@@std@@QAE?AV?$_Vector_iterator@V?$_Vector_val@U?$_Simple_types@PAVOnScreen@@@std@@@std@@@2@XZ ; std::vector<OnScreen *,std::allocator<OnScreen *> >::end
PUBLIC	?_Make_iter@?$vector@PAVOnScreen@@V?$allocator@PAVOnScreen@@@std@@@std@@QBE?AV?$_Vector_iterator@V?$_Vector_val@U?$_Simple_types@PAVOnScreen@@@std@@@std@@@2@V?$_Vector_const_iterator@V?$_Vector_val@U?$_Simple_types@PAVOnScreen@@@std@@@std@@@2@@Z ; std::vector<OnScreen *,std::allocator<OnScreen *> >::_Make_iter
PUBLIC	?size@?$vector@PAVOnScreen@@V?$allocator@PAVOnScreen@@@std@@@std@@QBEIXZ ; std::vector<OnScreen *,std::allocator<OnScreen *> >::size
PUBLIC	?max_size@?$vector@PAVOnScreen@@V?$allocator@PAVOnScreen@@@std@@@std@@QBEIXZ ; std::vector<OnScreen *,std::allocator<OnScreen *> >::max_size
PUBLIC	?push_back@?$vector@PAVOnScreen@@V?$allocator@PAVOnScreen@@@std@@@std@@QAEXABQAVOnScreen@@@Z ; std::vector<OnScreen *,std::allocator<OnScreen *> >::push_back
PUBLIC	?erase@?$vector@PAVOnScreen@@V?$allocator@PAVOnScreen@@@std@@@std@@QAE?AV?$_Vector_iterator@V?$_Vector_val@U?$_Simple_types@PAVOnScreen@@@std@@@std@@@2@V?$_Vector_const_iterator@V?$_Vector_val@U?$_Simple_types@PAVOnScreen@@@std@@@std@@@2@@Z ; std::vector<OnScreen *,std::allocator<OnScreen *> >::erase
PUBLIC	?_Destroy@?$vector@PAVOnScreen@@V?$allocator@PAVOnScreen@@@std@@@std@@IAEXPAPAVOnScreen@@0@Z ; std::vector<OnScreen *,std::allocator<OnScreen *> >::_Destroy
PUBLIC	?_Grow_to@?$vector@PAVOnScreen@@V?$allocator@PAVOnScreen@@@std@@@std@@IBEII@Z ; std::vector<OnScreen *,std::allocator<OnScreen *> >::_Grow_to
PUBLIC	?_Inside@?$vector@PAVOnScreen@@V?$allocator@PAVOnScreen@@@std@@@std@@IBE_NPBQAVOnScreen@@@Z ; std::vector<OnScreen *,std::allocator<OnScreen *> >::_Inside
PUBLIC	?_Reallocate@?$vector@PAVOnScreen@@V?$allocator@PAVOnScreen@@@std@@@std@@IAEXI@Z ; std::vector<OnScreen *,std::allocator<OnScreen *> >::_Reallocate
PUBLIC	?_Reserve@?$vector@PAVOnScreen@@V?$allocator@PAVOnScreen@@@std@@@std@@IAEXI@Z ; std::vector<OnScreen *,std::allocator<OnScreen *> >::_Reserve
PUBLIC	?_Tidy@?$vector@PAVOnScreen@@V?$allocator@PAVOnScreen@@@std@@@std@@IAEXXZ ; std::vector<OnScreen *,std::allocator<OnScreen *> >::_Tidy
PUBLIC	?_Xlen@?$vector@PAVOnScreen@@V?$allocator@PAVOnScreen@@@std@@@std@@IBEXXZ ; std::vector<OnScreen *,std::allocator<OnScreen *> >::_Xlen
PUBLIC	?_Orphan_range@?$vector@PAVOnScreen@@V?$allocator@PAVOnScreen@@@std@@@std@@IBEXPAPAVOnScreen@@0@Z ; std::vector<OnScreen *,std::allocator<OnScreen *> >::_Orphan_range
PUBLIC	?getLocation@OnScreen@@QAE?AVPoint@@XZ		; OnScreen::getLocation
PUBLIC	?intersects@OnScreen@@QAE_NPAV1@@Z		; OnScreen::intersects
PUBLIC	?move@OnScreen@@MAE_NW4Directions@@H@Z		; OnScreen::move
PUBLIC	??_GOnScreen@@UAEPAXI@Z				; OnScreen::`scalar deleting destructor'
PUBLIC	??0?$_Iterator012@Urandom_access_iterator_tag@std@@PAVOnScreen@@HPBQAV3@ABQAV3@U_Iterator_base12@2@@std@@QAE@XZ ; std::_Iterator012<std::random_access_iterator_tag,OnScreen *,int,OnScreen * const *,OnScreen * const &,std::_Iterator_base12>::_Iterator012<std::random_access_iterator_tag,OnScreen *,int,OnScreen * const *,OnScreen * const &,std::_Iterator_base12>
PUBLIC	??1?$_Iterator012@Urandom_access_iterator_tag@std@@PAVOnScreen@@HPBQAV3@ABQAV3@U_Iterator_base12@2@@std@@QAE@XZ ; std::_Iterator012<std::random_access_iterator_tag,OnScreen *,int,OnScreen * const *,OnScreen * const &,std::_Iterator_base12>::~_Iterator012<std::random_access_iterator_tag,OnScreen *,int,OnScreen * const *,OnScreen * const &,std::_Iterator_base12>
PUBLIC	??0?$_Iterator012@Urandom_access_iterator_tag@std@@PAVOnScreen@@HPBQAV3@ABQAV3@U_Iterator_base12@2@@std@@QAE@ABU01@@Z ; std::_Iterator012<std::random_access_iterator_tag,OnScreen *,int,OnScreen * const *,OnScreen * const &,std::_Iterator_base12>::_Iterator012<std::random_access_iterator_tag,OnScreen *,int,OnScreen * const *,OnScreen * const &,std::_Iterator_base12>
PUBLIC	??0?$_Vector_const_iterator@V?$_Vector_val@U?$_Simple_types@PAVOnScreen@@@std@@@std@@@std@@QAE@PAPAVOnScreen@@PBU_Container_base12@1@@Z ; std::_Vector_const_iterator<std::_Vector_val<std::_Simple_types<OnScreen *> > >::_Vector_const_iterator<std::_Vector_val<std::_Simple_types<OnScreen *> > >
PUBLIC	??D?$_Vector_const_iterator@V?$_Vector_val@U?$_Simple_types@PAVOnScreen@@@std@@@std@@@std@@QBEABQAVOnScreen@@XZ ; std::_Vector_const_iterator<std::_Vector_val<std::_Simple_types<OnScreen *> > >::operator*
PUBLIC	??E?$_Vector_const_iterator@V?$_Vector_val@U?$_Simple_types@PAVOnScreen@@@std@@@std@@@std@@QAEAAV01@XZ ; std::_Vector_const_iterator<std::_Vector_val<std::_Simple_types<OnScreen *> > >::operator++
PUBLIC	??8?$_Vector_const_iterator@V?$_Vector_val@U?$_Simple_types@PAVOnScreen@@@std@@@std@@@std@@QBE_NABV01@@Z ; std::_Vector_const_iterator<std::_Vector_val<std::_Simple_types<OnScreen *> > >::operator==
PUBLIC	??9?$_Vector_const_iterator@V?$_Vector_val@U?$_Simple_types@PAVOnScreen@@@std@@@std@@@std@@QBE_NABV01@@Z ; std::_Vector_const_iterator<std::_Vector_val<std::_Simple_types<OnScreen *> > >::operator!=
PUBLIC	?_Compat@?$_Vector_const_iterator@V?$_Vector_val@U?$_Simple_types@PAVOnScreen@@@std@@@std@@@std@@QBEXABV12@@Z ; std::_Vector_const_iterator<std::_Vector_val<std::_Simple_types<OnScreen *> > >::_Compat
PUBLIC	??1?$_Vector_const_iterator@V?$_Vector_val@U?$_Simple_types@PAVOnScreen@@@std@@@std@@@std@@QAE@XZ ; std::_Vector_const_iterator<std::_Vector_val<std::_Simple_types<OnScreen *> > >::~_Vector_const_iterator<std::_Vector_val<std::_Simple_types<OnScreen *> > >
PUBLIC	??0?$_Vector_const_iterator@V?$_Vector_val@U?$_Simple_types@PAVOnScreen@@@std@@@std@@@std@@QAE@ABV01@@Z ; std::_Vector_const_iterator<std::_Vector_val<std::_Simple_types<OnScreen *> > >::_Vector_const_iterator<std::_Vector_val<std::_Simple_types<OnScreen *> > >
PUBLIC	??0?$_Vector_iterator@V?$_Vector_val@U?$_Simple_types@PAVOnScreen@@@std@@@std@@@std@@QAE@PAPAVOnScreen@@PBU_Container_base12@1@@Z ; std::_Vector_iterator<std::_Vector_val<std::_Simple_types<OnScreen *> > >::_Vector_iterator<std::_Vector_val<std::_Simple_types<OnScreen *> > >
PUBLIC	??D?$_Vector_iterator@V?$_Vector_val@U?$_Simple_types@PAVOnScreen@@@std@@@std@@@std@@QBEAAPAVOnScreen@@XZ ; std::_Vector_iterator<std::_Vector_val<std::_Simple_types<OnScreen *> > >::operator*
PUBLIC	??E?$_Vector_iterator@V?$_Vector_val@U?$_Simple_types@PAVOnScreen@@@std@@@std@@@std@@QAEAAV01@XZ ; std::_Vector_iterator<std::_Vector_val<std::_Simple_types<OnScreen *> > >::operator++
PUBLIC	??E?$_Vector_iterator@V?$_Vector_val@U?$_Simple_types@PAVOnScreen@@@std@@@std@@@std@@QAE?AV01@H@Z ; std::_Vector_iterator<std::_Vector_val<std::_Simple_types<OnScreen *> > >::operator++
PUBLIC	??1?$_Vector_iterator@V?$_Vector_val@U?$_Simple_types@PAVOnScreen@@@std@@@std@@@std@@QAE@XZ ; std::_Vector_iterator<std::_Vector_val<std::_Simple_types<OnScreen *> > >::~_Vector_iterator<std::_Vector_val<std::_Simple_types<OnScreen *> > >
PUBLIC	??0?$_Vector_iterator@V?$_Vector_val@U?$_Simple_types@PAVOnScreen@@@std@@@std@@@std@@QAE@ABV01@@Z ; std::_Vector_iterator<std::_Vector_val<std::_Simple_types<OnScreen *> > >::_Vector_iterator<std::_Vector_val<std::_Simple_types<OnScreen *> > >
PUBLIC	??0LivingEntity@@QAE@XZ				; LivingEntity::LivingEntity
PUBLIC	??1LivingEntity@@UAE@XZ				; LivingEntity::~LivingEntity
PUBLIC	?subHealth@LivingEntity@@UAEXH@Z		; LivingEntity::subHealth
PUBLIC	?isAlive@LivingEntity@@QAE_NXZ			; LivingEntity::isAlive
PUBLIC	??0?$allocator@PAVLivingEntity@@@std@@QAE@XZ	; std::allocator<LivingEntity *>::allocator<LivingEntity *>
PUBLIC	?deallocate@?$allocator@PAVLivingEntity@@@std@@QAEXPAPAVLivingEntity@@I@Z ; std::allocator<LivingEntity *>::deallocate
PUBLIC	?allocate@?$allocator@PAVLivingEntity@@@std@@QAEPAPAVLivingEntity@@I@Z ; std::allocator<LivingEntity *>::allocate
PUBLIC	?construct@?$allocator@PAVLivingEntity@@@std@@QAEXPAPAVLivingEntity@@ABQAV3@@Z ; std::allocator<LivingEntity *>::construct
PUBLIC	?max_size@?$allocator@PAVLivingEntity@@@std@@QBEIXZ ; std::allocator<LivingEntity *>::max_size
PUBLIC	?max_size@?$allocator_traits@V?$allocator@PAVLivingEntity@@@std@@@std@@SAIABV?$allocator@PAVLivingEntity@@@2@@Z ; std::allocator_traits<std::allocator<LivingEntity *> >::max_size
PUBLIC	??0?$_Wrap_alloc@V?$allocator@PAVLivingEntity@@@std@@@std@@QAE@XZ ; std::_Wrap_alloc<std::allocator<LivingEntity *> >::_Wrap_alloc<std::allocator<LivingEntity *> >
PUBLIC	?allocate@?$_Wrap_alloc@V?$allocator@PAVLivingEntity@@@std@@@std@@QAEPAPAVLivingEntity@@I@Z ; std::_Wrap_alloc<std::allocator<LivingEntity *> >::allocate
PUBLIC	?deallocate@?$_Wrap_alloc@V?$allocator@PAVLivingEntity@@@std@@@std@@QAEXPAPAVLivingEntity@@I@Z ; std::_Wrap_alloc<std::allocator<LivingEntity *> >::deallocate
PUBLIC	?max_size@?$_Wrap_alloc@V?$allocator@PAVLivingEntity@@@std@@@std@@QBEIXZ ; std::_Wrap_alloc<std::allocator<LivingEntity *> >::max_size
PUBLIC	??0?$_Vector_val@U?$_Simple_types@PAVLivingEntity@@@std@@@std@@QAE@XZ ; std::_Vector_val<std::_Simple_types<LivingEntity *> >::_Vector_val<std::_Simple_types<LivingEntity *> >
PUBLIC	??1?$_Vector_val@U?$_Simple_types@PAVLivingEntity@@@std@@@std@@QAE@XZ ; std::_Vector_val<std::_Simple_types<LivingEntity *> >::~_Vector_val<std::_Simple_types<LivingEntity *> >
PUBLIC	??0?$_Vector_alloc@$0A@U?$_Vec_base_types@PAVLivingEntity@@V?$allocator@PAVLivingEntity@@@std@@@std@@@std@@QAE@ABV?$allocator@PAVLivingEntity@@@1@@Z ; std::_Vector_alloc<0,std::_Vec_base_types<LivingEntity *,std::allocator<LivingEntity *> > >::_Vector_alloc<0,std::_Vec_base_types<LivingEntity *,std::allocator<LivingEntity *> > >
PUBLIC	??1?$_Vector_alloc@$0A@U?$_Vec_base_types@PAVLivingEntity@@V?$allocator@PAVLivingEntity@@@std@@@std@@@std@@QAE@XZ ; std::_Vector_alloc<0,std::_Vec_base_types<LivingEntity *,std::allocator<LivingEntity *> > >::~_Vector_alloc<0,std::_Vec_base_types<LivingEntity *,std::allocator<LivingEntity *> > >
PUBLIC	?_Alloc_proxy@?$_Vector_alloc@$0A@U?$_Vec_base_types@PAVLivingEntity@@V?$allocator@PAVLivingEntity@@@std@@@std@@@std@@QAEXXZ ; std::_Vector_alloc<0,std::_Vec_base_types<LivingEntity *,std::allocator<LivingEntity *> > >::_Alloc_proxy
PUBLIC	?_Free_proxy@?$_Vector_alloc@$0A@U?$_Vec_base_types@PAVLivingEntity@@V?$allocator@PAVLivingEntity@@@std@@@std@@@std@@QAEXXZ ; std::_Vector_alloc<0,std::_Vec_base_types<LivingEntity *,std::allocator<LivingEntity *> > >::_Free_proxy
PUBLIC	?_Getal@?$_Vector_alloc@$0A@U?$_Vec_base_types@PAVLivingEntity@@V?$allocator@PAVLivingEntity@@@std@@@std@@@std@@QBE?AU?$_Wrap_alloc@V?$allocator@PAVLivingEntity@@@std@@@2@XZ ; std::_Vector_alloc<0,std::_Vec_base_types<LivingEntity *,std::allocator<LivingEntity *> > >::_Getal
PUBLIC	??0?$vector@PAVLivingEntity@@V?$allocator@PAVLivingEntity@@@std@@@std@@QAE@XZ ; std::vector<LivingEntity *,std::allocator<LivingEntity *> >::vector<LivingEntity *,std::allocator<LivingEntity *> >
PUBLIC	??1?$vector@PAVLivingEntity@@V?$allocator@PAVLivingEntity@@@std@@@std@@QAE@XZ ; std::vector<LivingEntity *,std::allocator<LivingEntity *> >::~vector<LivingEntity *,std::allocator<LivingEntity *> >
PUBLIC	?capacity@?$vector@PAVLivingEntity@@V?$allocator@PAVLivingEntity@@@std@@@std@@QBEIXZ ; std::vector<LivingEntity *,std::allocator<LivingEntity *> >::capacity
PUBLIC	?_Unused_capacity@?$vector@PAVLivingEntity@@V?$allocator@PAVLivingEntity@@@std@@@std@@QBEIXZ ; std::vector<LivingEntity *,std::allocator<LivingEntity *> >::_Unused_capacity
PUBLIC	?begin@?$vector@PAVLivingEntity@@V?$allocator@PAVLivingEntity@@@std@@@std@@QAE?AV?$_Vector_iterator@V?$_Vector_val@U?$_Simple_types@PAVLivingEntity@@@std@@@std@@@2@XZ ; std::vector<LivingEntity *,std::allocator<LivingEntity *> >::begin
PUBLIC	?end@?$vector@PAVLivingEntity@@V?$allocator@PAVLivingEntity@@@std@@@std@@QAE?AV?$_Vector_iterator@V?$_Vector_val@U?$_Simple_types@PAVLivingEntity@@@std@@@std@@@2@XZ ; std::vector<LivingEntity *,std::allocator<LivingEntity *> >::end
PUBLIC	?_Make_iter@?$vector@PAVLivingEntity@@V?$allocator@PAVLivingEntity@@@std@@@std@@QBE?AV?$_Vector_iterator@V?$_Vector_val@U?$_Simple_types@PAVLivingEntity@@@std@@@std@@@2@V?$_Vector_const_iterator@V?$_Vector_val@U?$_Simple_types@PAVLivingEntity@@@std@@@std@@@2@@Z ; std::vector<LivingEntity *,std::allocator<LivingEntity *> >::_Make_iter
PUBLIC	?size@?$vector@PAVLivingEntity@@V?$allocator@PAVLivingEntity@@@std@@@std@@QBEIXZ ; std::vector<LivingEntity *,std::allocator<LivingEntity *> >::size
PUBLIC	?max_size@?$vector@PAVLivingEntity@@V?$allocator@PAVLivingEntity@@@std@@@std@@QBEIXZ ; std::vector<LivingEntity *,std::allocator<LivingEntity *> >::max_size
PUBLIC	?push_back@?$vector@PAVLivingEntity@@V?$allocator@PAVLivingEntity@@@std@@@std@@QAEXABQAVLivingEntity@@@Z ; std::vector<LivingEntity *,std::allocator<LivingEntity *> >::push_back
PUBLIC	?erase@?$vector@PAVLivingEntity@@V?$allocator@PAVLivingEntity@@@std@@@std@@QAE?AV?$_Vector_iterator@V?$_Vector_val@U?$_Simple_types@PAVLivingEntity@@@std@@@std@@@2@V?$_Vector_const_iterator@V?$_Vector_val@U?$_Simple_types@PAVLivingEntity@@@std@@@std@@@2@@Z ; std::vector<LivingEntity *,std::allocator<LivingEntity *> >::erase
PUBLIC	?_Destroy@?$vector@PAVLivingEntity@@V?$allocator@PAVLivingEntity@@@std@@@std@@IAEXPAPAVLivingEntity@@0@Z ; std::vector<LivingEntity *,std::allocator<LivingEntity *> >::_Destroy
PUBLIC	?_Grow_to@?$vector@PAVLivingEntity@@V?$allocator@PAVLivingEntity@@@std@@@std@@IBEII@Z ; std::vector<LivingEntity *,std::allocator<LivingEntity *> >::_Grow_to
PUBLIC	?_Inside@?$vector@PAVLivingEntity@@V?$allocator@PAVLivingEntity@@@std@@@std@@IBE_NPBQAVLivingEntity@@@Z ; std::vector<LivingEntity *,std::allocator<LivingEntity *> >::_Inside
PUBLIC	?_Reallocate@?$vector@PAVLivingEntity@@V?$allocator@PAVLivingEntity@@@std@@@std@@IAEXI@Z ; std::vector<LivingEntity *,std::allocator<LivingEntity *> >::_Reallocate
PUBLIC	?_Reserve@?$vector@PAVLivingEntity@@V?$allocator@PAVLivingEntity@@@std@@@std@@IAEXI@Z ; std::vector<LivingEntity *,std::allocator<LivingEntity *> >::_Reserve
PUBLIC	?_Tidy@?$vector@PAVLivingEntity@@V?$allocator@PAVLivingEntity@@@std@@@std@@IAEXXZ ; std::vector<LivingEntity *,std::allocator<LivingEntity *> >::_Tidy
PUBLIC	?_Xlen@?$vector@PAVLivingEntity@@V?$allocator@PAVLivingEntity@@@std@@@std@@IBEXXZ ; std::vector<LivingEntity *,std::allocator<LivingEntity *> >::_Xlen
PUBLIC	?_Orphan_range@?$vector@PAVLivingEntity@@V?$allocator@PAVLivingEntity@@@std@@@std@@IBEXPAPAVLivingEntity@@0@Z ; std::vector<LivingEntity *,std::allocator<LivingEntity *> >::_Orphan_range
PUBLIC	??_GLivingEntity@@UAEPAXI@Z			; LivingEntity::`scalar deleting destructor'
PUBLIC	??0?$_Iterator012@Urandom_access_iterator_tag@std@@PAVLivingEntity@@HPBQAV3@ABQAV3@U_Iterator_base12@2@@std@@QAE@XZ ; std::_Iterator012<std::random_access_iterator_tag,LivingEntity *,int,LivingEntity * const *,LivingEntity * const &,std::_Iterator_base12>::_Iterator012<std::random_access_iterator_tag,LivingEntity *,int,LivingEntity * const *,LivingEntity * const &,std::_Iterator_base12>
PUBLIC	??1?$_Iterator012@Urandom_access_iterator_tag@std@@PAVLivingEntity@@HPBQAV3@ABQAV3@U_Iterator_base12@2@@std@@QAE@XZ ; std::_Iterator012<std::random_access_iterator_tag,LivingEntity *,int,LivingEntity * const *,LivingEntity * const &,std::_Iterator_base12>::~_Iterator012<std::random_access_iterator_tag,LivingEntity *,int,LivingEntity * const *,LivingEntity * const &,std::_Iterator_base12>
PUBLIC	??0?$_Iterator012@Urandom_access_iterator_tag@std@@PAVLivingEntity@@HPBQAV3@ABQAV3@U_Iterator_base12@2@@std@@QAE@ABU01@@Z ; std::_Iterator012<std::random_access_iterator_tag,LivingEntity *,int,LivingEntity * const *,LivingEntity * const &,std::_Iterator_base12>::_Iterator012<std::random_access_iterator_tag,LivingEntity *,int,LivingEntity * const *,LivingEntity * const &,std::_Iterator_base12>
PUBLIC	??0?$_Vector_const_iterator@V?$_Vector_val@U?$_Simple_types@PAVLivingEntity@@@std@@@std@@@std@@QAE@PAPAVLivingEntity@@PBU_Container_base12@1@@Z ; std::_Vector_const_iterator<std::_Vector_val<std::_Simple_types<LivingEntity *> > >::_Vector_const_iterator<std::_Vector_val<std::_Simple_types<LivingEntity *> > >
PUBLIC	??D?$_Vector_const_iterator@V?$_Vector_val@U?$_Simple_types@PAVLivingEntity@@@std@@@std@@@std@@QBEABQAVLivingEntity@@XZ ; std::_Vector_const_iterator<std::_Vector_val<std::_Simple_types<LivingEntity *> > >::operator*
PUBLIC	??E?$_Vector_const_iterator@V?$_Vector_val@U?$_Simple_types@PAVLivingEntity@@@std@@@std@@@std@@QAEAAV01@XZ ; std::_Vector_const_iterator<std::_Vector_val<std::_Simple_types<LivingEntity *> > >::operator++
PUBLIC	??8?$_Vector_const_iterator@V?$_Vector_val@U?$_Simple_types@PAVLivingEntity@@@std@@@std@@@std@@QBE_NABV01@@Z ; std::_Vector_const_iterator<std::_Vector_val<std::_Simple_types<LivingEntity *> > >::operator==
PUBLIC	??9?$_Vector_const_iterator@V?$_Vector_val@U?$_Simple_types@PAVLivingEntity@@@std@@@std@@@std@@QBE_NABV01@@Z ; std::_Vector_const_iterator<std::_Vector_val<std::_Simple_types<LivingEntity *> > >::operator!=
PUBLIC	?_Compat@?$_Vector_const_iterator@V?$_Vector_val@U?$_Simple_types@PAVLivingEntity@@@std@@@std@@@std@@QBEXABV12@@Z ; std::_Vector_const_iterator<std::_Vector_val<std::_Simple_types<LivingEntity *> > >::_Compat
PUBLIC	??1?$_Vector_const_iterator@V?$_Vector_val@U?$_Simple_types@PAVLivingEntity@@@std@@@std@@@std@@QAE@XZ ; std::_Vector_const_iterator<std::_Vector_val<std::_Simple_types<LivingEntity *> > >::~_Vector_const_iterator<std::_Vector_val<std::_Simple_types<LivingEntity *> > >
PUBLIC	??0?$_Vector_const_iterator@V?$_Vector_val@U?$_Simple_types@PAVLivingEntity@@@std@@@std@@@std@@QAE@ABV01@@Z ; std::_Vector_const_iterator<std::_Vector_val<std::_Simple_types<LivingEntity *> > >::_Vector_const_iterator<std::_Vector_val<std::_Simple_types<LivingEntity *> > >
PUBLIC	??0?$_Vector_iterator@V?$_Vector_val@U?$_Simple_types@PAVLivingEntity@@@std@@@std@@@std@@QAE@PAPAVLivingEntity@@PBU_Container_base12@1@@Z ; std::_Vector_iterator<std::_Vector_val<std::_Simple_types<LivingEntity *> > >::_Vector_iterator<std::_Vector_val<std::_Simple_types<LivingEntity *> > >
PUBLIC	??D?$_Vector_iterator@V?$_Vector_val@U?$_Simple_types@PAVLivingEntity@@@std@@@std@@@std@@QBEAAPAVLivingEntity@@XZ ; std::_Vector_iterator<std::_Vector_val<std::_Simple_types<LivingEntity *> > >::operator*
PUBLIC	??E?$_Vector_iterator@V?$_Vector_val@U?$_Simple_types@PAVLivingEntity@@@std@@@std@@@std@@QAEAAV01@XZ ; std::_Vector_iterator<std::_Vector_val<std::_Simple_types<LivingEntity *> > >::operator++
PUBLIC	??E?$_Vector_iterator@V?$_Vector_val@U?$_Simple_types@PAVLivingEntity@@@std@@@std@@@std@@QAE?AV01@H@Z ; std::_Vector_iterator<std::_Vector_val<std::_Simple_types<LivingEntity *> > >::operator++
PUBLIC	??1?$_Vector_iterator@V?$_Vector_val@U?$_Simple_types@PAVLivingEntity@@@std@@@std@@@std@@QAE@XZ ; std::_Vector_iterator<std::_Vector_val<std::_Simple_types<LivingEntity *> > >::~_Vector_iterator<std::_Vector_val<std::_Simple_types<LivingEntity *> > >
PUBLIC	??0?$_Vector_iterator@V?$_Vector_val@U?$_Simple_types@PAVLivingEntity@@@std@@@std@@@std@@QAE@ABV01@@Z ; std::_Vector_iterator<std::_Vector_val<std::_Simple_types<LivingEntity *> > >::_Vector_iterator<std::_Vector_val<std::_Simple_types<LivingEntity *> > >
PUBLIC	??0Bullet@@QAE@HW4Directions@@HHH@Z		; Bullet::Bullet
PUBLIC	??1Bullet@@UAE@XZ				; Bullet::~Bullet
PUBLIC	?renderBullets@Bullet@@SAXXZ			; Bullet::renderBullets
PUBLIC	??0?$allocator@PAVBullet@@@std@@QAE@XZ		; std::allocator<Bullet *>::allocator<Bullet *>
PUBLIC	?deallocate@?$allocator@PAVBullet@@@std@@QAEXPAPAVBullet@@I@Z ; std::allocator<Bullet *>::deallocate
PUBLIC	?allocate@?$allocator@PAVBullet@@@std@@QAEPAPAVBullet@@I@Z ; std::allocator<Bullet *>::allocate
PUBLIC	?construct@?$allocator@PAVBullet@@@std@@QAEXPAPAVBullet@@ABQAV3@@Z ; std::allocator<Bullet *>::construct
PUBLIC	?max_size@?$allocator@PAVBullet@@@std@@QBEIXZ	; std::allocator<Bullet *>::max_size
PUBLIC	?max_size@?$allocator_traits@V?$allocator@PAVBullet@@@std@@@std@@SAIABV?$allocator@PAVBullet@@@2@@Z ; std::allocator_traits<std::allocator<Bullet *> >::max_size
PUBLIC	??0?$_Wrap_alloc@V?$allocator@PAVBullet@@@std@@@std@@QAE@XZ ; std::_Wrap_alloc<std::allocator<Bullet *> >::_Wrap_alloc<std::allocator<Bullet *> >
PUBLIC	?allocate@?$_Wrap_alloc@V?$allocator@PAVBullet@@@std@@@std@@QAEPAPAVBullet@@I@Z ; std::_Wrap_alloc<std::allocator<Bullet *> >::allocate
PUBLIC	?deallocate@?$_Wrap_alloc@V?$allocator@PAVBullet@@@std@@@std@@QAEXPAPAVBullet@@I@Z ; std::_Wrap_alloc<std::allocator<Bullet *> >::deallocate
PUBLIC	?max_size@?$_Wrap_alloc@V?$allocator@PAVBullet@@@std@@@std@@QBEIXZ ; std::_Wrap_alloc<std::allocator<Bullet *> >::max_size
PUBLIC	??0?$_Vector_val@U?$_Simple_types@PAVBullet@@@std@@@std@@QAE@XZ ; std::_Vector_val<std::_Simple_types<Bullet *> >::_Vector_val<std::_Simple_types<Bullet *> >
PUBLIC	??1?$_Vector_val@U?$_Simple_types@PAVBullet@@@std@@@std@@QAE@XZ ; std::_Vector_val<std::_Simple_types<Bullet *> >::~_Vector_val<std::_Simple_types<Bullet *> >
PUBLIC	??0?$_Vector_alloc@$0A@U?$_Vec_base_types@PAVBullet@@V?$allocator@PAVBullet@@@std@@@std@@@std@@QAE@ABV?$allocator@PAVBullet@@@1@@Z ; std::_Vector_alloc<0,std::_Vec_base_types<Bullet *,std::allocator<Bullet *> > >::_Vector_alloc<0,std::_Vec_base_types<Bullet *,std::allocator<Bullet *> > >
PUBLIC	??1?$_Vector_alloc@$0A@U?$_Vec_base_types@PAVBullet@@V?$allocator@PAVBullet@@@std@@@std@@@std@@QAE@XZ ; std::_Vector_alloc<0,std::_Vec_base_types<Bullet *,std::allocator<Bullet *> > >::~_Vector_alloc<0,std::_Vec_base_types<Bullet *,std::allocator<Bullet *> > >
PUBLIC	?_Alloc_proxy@?$_Vector_alloc@$0A@U?$_Vec_base_types@PAVBullet@@V?$allocator@PAVBullet@@@std@@@std@@@std@@QAEXXZ ; std::_Vector_alloc<0,std::_Vec_base_types<Bullet *,std::allocator<Bullet *> > >::_Alloc_proxy
PUBLIC	?_Free_proxy@?$_Vector_alloc@$0A@U?$_Vec_base_types@PAVBullet@@V?$allocator@PAVBullet@@@std@@@std@@@std@@QAEXXZ ; std::_Vector_alloc<0,std::_Vec_base_types<Bullet *,std::allocator<Bullet *> > >::_Free_proxy
PUBLIC	?_Getal@?$_Vector_alloc@$0A@U?$_Vec_base_types@PAVBullet@@V?$allocator@PAVBullet@@@std@@@std@@@std@@QBE?AU?$_Wrap_alloc@V?$allocator@PAVBullet@@@std@@@2@XZ ; std::_Vector_alloc<0,std::_Vec_base_types<Bullet *,std::allocator<Bullet *> > >::_Getal
PUBLIC	??0?$vector@PAVBullet@@V?$allocator@PAVBullet@@@std@@@std@@QAE@XZ ; std::vector<Bullet *,std::allocator<Bullet *> >::vector<Bullet *,std::allocator<Bullet *> >
PUBLIC	??1?$vector@PAVBullet@@V?$allocator@PAVBullet@@@std@@@std@@QAE@XZ ; std::vector<Bullet *,std::allocator<Bullet *> >::~vector<Bullet *,std::allocator<Bullet *> >
PUBLIC	?capacity@?$vector@PAVBullet@@V?$allocator@PAVBullet@@@std@@@std@@QBEIXZ ; std::vector<Bullet *,std::allocator<Bullet *> >::capacity
PUBLIC	?_Unused_capacity@?$vector@PAVBullet@@V?$allocator@PAVBullet@@@std@@@std@@QBEIXZ ; std::vector<Bullet *,std::allocator<Bullet *> >::_Unused_capacity
PUBLIC	?begin@?$vector@PAVBullet@@V?$allocator@PAVBullet@@@std@@@std@@QAE?AV?$_Vector_iterator@V?$_Vector_val@U?$_Simple_types@PAVBullet@@@std@@@std@@@2@XZ ; std::vector<Bullet *,std::allocator<Bullet *> >::begin
PUBLIC	?end@?$vector@PAVBullet@@V?$allocator@PAVBullet@@@std@@@std@@QAE?AV?$_Vector_iterator@V?$_Vector_val@U?$_Simple_types@PAVBullet@@@std@@@std@@@2@XZ ; std::vector<Bullet *,std::allocator<Bullet *> >::end
PUBLIC	?_Make_iter@?$vector@PAVBullet@@V?$allocator@PAVBullet@@@std@@@std@@QBE?AV?$_Vector_iterator@V?$_Vector_val@U?$_Simple_types@PAVBullet@@@std@@@std@@@2@V?$_Vector_const_iterator@V?$_Vector_val@U?$_Simple_types@PAVBullet@@@std@@@std@@@2@@Z ; std::vector<Bullet *,std::allocator<Bullet *> >::_Make_iter
PUBLIC	?size@?$vector@PAVBullet@@V?$allocator@PAVBullet@@@std@@@std@@QBEIXZ ; std::vector<Bullet *,std::allocator<Bullet *> >::size
PUBLIC	?max_size@?$vector@PAVBullet@@V?$allocator@PAVBullet@@@std@@@std@@QBEIXZ ; std::vector<Bullet *,std::allocator<Bullet *> >::max_size
PUBLIC	??A?$vector@PAVBullet@@V?$allocator@PAVBullet@@@std@@@std@@QAEAAPAVBullet@@I@Z ; std::vector<Bullet *,std::allocator<Bullet *> >::operator[]
PUBLIC	?push_back@?$vector@PAVBullet@@V?$allocator@PAVBullet@@@std@@@std@@QAEXABQAVBullet@@@Z ; std::vector<Bullet *,std::allocator<Bullet *> >::push_back
PUBLIC	?erase@?$vector@PAVBullet@@V?$allocator@PAVBullet@@@std@@@std@@QAE?AV?$_Vector_iterator@V?$_Vector_val@U?$_Simple_types@PAVBullet@@@std@@@std@@@2@V?$_Vector_const_iterator@V?$_Vector_val@U?$_Simple_types@PAVBullet@@@std@@@std@@@2@@Z ; std::vector<Bullet *,std::allocator<Bullet *> >::erase
PUBLIC	?_Destroy@?$vector@PAVBullet@@V?$allocator@PAVBullet@@@std@@@std@@IAEXPAPAVBullet@@0@Z ; std::vector<Bullet *,std::allocator<Bullet *> >::_Destroy
PUBLIC	?_Grow_to@?$vector@PAVBullet@@V?$allocator@PAVBullet@@@std@@@std@@IBEII@Z ; std::vector<Bullet *,std::allocator<Bullet *> >::_Grow_to
PUBLIC	?_Inside@?$vector@PAVBullet@@V?$allocator@PAVBullet@@@std@@@std@@IBE_NPBQAVBullet@@@Z ; std::vector<Bullet *,std::allocator<Bullet *> >::_Inside
PUBLIC	?_Reallocate@?$vector@PAVBullet@@V?$allocator@PAVBullet@@@std@@@std@@IAEXI@Z ; std::vector<Bullet *,std::allocator<Bullet *> >::_Reallocate
PUBLIC	?_Reserve@?$vector@PAVBullet@@V?$allocator@PAVBullet@@@std@@@std@@IAEXI@Z ; std::vector<Bullet *,std::allocator<Bullet *> >::_Reserve
PUBLIC	?_Tidy@?$vector@PAVBullet@@V?$allocator@PAVBullet@@@std@@@std@@IAEXXZ ; std::vector<Bullet *,std::allocator<Bullet *> >::_Tidy
PUBLIC	?_Xlen@?$vector@PAVBullet@@V?$allocator@PAVBullet@@@std@@@std@@IBEXXZ ; std::vector<Bullet *,std::allocator<Bullet *> >::_Xlen
PUBLIC	?_Orphan_range@?$vector@PAVBullet@@V?$allocator@PAVBullet@@@std@@@std@@IBEXPAPAVBullet@@0@Z ; std::vector<Bullet *,std::allocator<Bullet *> >::_Orphan_range
PUBLIC	?addBullet@Bullet@@KAXPAV1@@Z			; Bullet::addBullet
PUBLIC	?move@Bullet@@MAE_NXZ				; Bullet::move
PUBLIC	?toChar@Bullet@@MAEDXZ				; Bullet::toChar
PUBLIC	??_GBullet@@UAEPAXI@Z				; Bullet::`scalar deleting destructor'
PUBLIC	??0?$_Iterator012@Urandom_access_iterator_tag@std@@PAVBullet@@HPBQAV3@ABQAV3@U_Iterator_base12@2@@std@@QAE@XZ ; std::_Iterator012<std::random_access_iterator_tag,Bullet *,int,Bullet * const *,Bullet * const &,std::_Iterator_base12>::_Iterator012<std::random_access_iterator_tag,Bullet *,int,Bullet * const *,Bullet * const &,std::_Iterator_base12>
PUBLIC	??1?$_Iterator012@Urandom_access_iterator_tag@std@@PAVBullet@@HPBQAV3@ABQAV3@U_Iterator_base12@2@@std@@QAE@XZ ; std::_Iterator012<std::random_access_iterator_tag,Bullet *,int,Bullet * const *,Bullet * const &,std::_Iterator_base12>::~_Iterator012<std::random_access_iterator_tag,Bullet *,int,Bullet * const *,Bullet * const &,std::_Iterator_base12>
PUBLIC	??0?$_Iterator012@Urandom_access_iterator_tag@std@@PAVBullet@@HPBQAV3@ABQAV3@U_Iterator_base12@2@@std@@QAE@ABU01@@Z ; std::_Iterator012<std::random_access_iterator_tag,Bullet *,int,Bullet * const *,Bullet * const &,std::_Iterator_base12>::_Iterator012<std::random_access_iterator_tag,Bullet *,int,Bullet * const *,Bullet * const &,std::_Iterator_base12>
PUBLIC	??0?$_Vector_const_iterator@V?$_Vector_val@U?$_Simple_types@PAVBullet@@@std@@@std@@@std@@QAE@PAPAVBullet@@PBU_Container_base12@1@@Z ; std::_Vector_const_iterator<std::_Vector_val<std::_Simple_types<Bullet *> > >::_Vector_const_iterator<std::_Vector_val<std::_Simple_types<Bullet *> > >
PUBLIC	??D?$_Vector_const_iterator@V?$_Vector_val@U?$_Simple_types@PAVBullet@@@std@@@std@@@std@@QBEABQAVBullet@@XZ ; std::_Vector_const_iterator<std::_Vector_val<std::_Simple_types<Bullet *> > >::operator*
PUBLIC	??E?$_Vector_const_iterator@V?$_Vector_val@U?$_Simple_types@PAVBullet@@@std@@@std@@@std@@QAEAAV01@XZ ; std::_Vector_const_iterator<std::_Vector_val<std::_Simple_types<Bullet *> > >::operator++
PUBLIC	??8?$_Vector_const_iterator@V?$_Vector_val@U?$_Simple_types@PAVBullet@@@std@@@std@@@std@@QBE_NABV01@@Z ; std::_Vector_const_iterator<std::_Vector_val<std::_Simple_types<Bullet *> > >::operator==
PUBLIC	??9?$_Vector_const_iterator@V?$_Vector_val@U?$_Simple_types@PAVBullet@@@std@@@std@@@std@@QBE_NABV01@@Z ; std::_Vector_const_iterator<std::_Vector_val<std::_Simple_types<Bullet *> > >::operator!=
PUBLIC	?_Compat@?$_Vector_const_iterator@V?$_Vector_val@U?$_Simple_types@PAVBullet@@@std@@@std@@@std@@QBEXABV12@@Z ; std::_Vector_const_iterator<std::_Vector_val<std::_Simple_types<Bullet *> > >::_Compat
PUBLIC	??1?$_Vector_const_iterator@V?$_Vector_val@U?$_Simple_types@PAVBullet@@@std@@@std@@@std@@QAE@XZ ; std::_Vector_const_iterator<std::_Vector_val<std::_Simple_types<Bullet *> > >::~_Vector_const_iterator<std::_Vector_val<std::_Simple_types<Bullet *> > >
PUBLIC	??0?$_Vector_const_iterator@V?$_Vector_val@U?$_Simple_types@PAVBullet@@@std@@@std@@@std@@QAE@ABV01@@Z ; std::_Vector_const_iterator<std::_Vector_val<std::_Simple_types<Bullet *> > >::_Vector_const_iterator<std::_Vector_val<std::_Simple_types<Bullet *> > >
PUBLIC	??0?$_Vector_iterator@V?$_Vector_val@U?$_Simple_types@PAVBullet@@@std@@@std@@@std@@QAE@PAPAVBullet@@PBU_Container_base12@1@@Z ; std::_Vector_iterator<std::_Vector_val<std::_Simple_types<Bullet *> > >::_Vector_iterator<std::_Vector_val<std::_Simple_types<Bullet *> > >
PUBLIC	??D?$_Vector_iterator@V?$_Vector_val@U?$_Simple_types@PAVBullet@@@std@@@std@@@std@@QBEAAPAVBullet@@XZ ; std::_Vector_iterator<std::_Vector_val<std::_Simple_types<Bullet *> > >::operator*
PUBLIC	??E?$_Vector_iterator@V?$_Vector_val@U?$_Simple_types@PAVBullet@@@std@@@std@@@std@@QAEAAV01@XZ ; std::_Vector_iterator<std::_Vector_val<std::_Simple_types<Bullet *> > >::operator++
PUBLIC	??E?$_Vector_iterator@V?$_Vector_val@U?$_Simple_types@PAVBullet@@@std@@@std@@@std@@QAE?AV01@H@Z ; std::_Vector_iterator<std::_Vector_val<std::_Simple_types<Bullet *> > >::operator++
PUBLIC	??1?$_Vector_iterator@V?$_Vector_val@U?$_Simple_types@PAVBullet@@@std@@@std@@@std@@QAE@XZ ; std::_Vector_iterator<std::_Vector_val<std::_Simple_types<Bullet *> > >::~_Vector_iterator<std::_Vector_val<std::_Simple_types<Bullet *> > >
PUBLIC	??0?$_Vector_iterator@V?$_Vector_val@U?$_Simple_types@PAVBullet@@@std@@@std@@@std@@QAE@ABV01@@Z ; std::_Vector_iterator<std::_Vector_val<std::_Simple_types<Bullet *> > >::_Vector_iterator<std::_Vector_val<std::_Simple_types<Bullet *> > >
PUBLIC	??0FightingEntity@@QAE@XZ			; FightingEntity::FightingEntity
PUBLIC	??1FightingEntity@@UAE@XZ			; FightingEntity::~FightingEntity
PUBLIC	??_GFightingEntity@@UAEPAXI@Z			; FightingEntity::`scalar deleting destructor'
PUBLIC	??0Player@@QAE@HHMHHHV?$basic_string@DU?$char_traits@D@std@@V?$allocator@D@2@@std@@W4Directions@@@Z ; Player::Player
PUBLIC	?getName@Player@@QAE?AV?$basic_string@DU?$char_traits@D@std@@V?$allocator@D@2@@std@@XZ ; Player::getName
PUBLIC	?move@Player@@QAEXW4Directions@@@Z		; Player::move
PUBLIC	?shoot@Player@@UAEXW4Directions@@@Z		; Player::shoot
PUBLIC	?subHealth@Player@@UAEXH@Z			; Player::subHealth
PUBLIC	?toChar@Player@@MAEDXZ				; Player::toChar
PUBLIC	??1Player@@UAE@XZ				; Player::~Player
PUBLIC	??_GPlayer@@UAEPAXI@Z				; Player::`scalar deleting destructor'
PUBLIC	??0Enemy@@QAE@XZ				; Enemy::Enemy
PUBLIC	??1Enemy@@UAE@XZ				; Enemy::~Enemy
PUBLIC	?aiTurn@Enemy@@SAXPAVLivingEntity@@@Z		; Enemy::aiTurn
PUBLIC	?getEnemies@Enemy@@SA?AV?$vector@PAVEnemy@@V?$allocator@PAVEnemy@@@std@@@std@@XZ ; Enemy::getEnemies
PUBLIC	?select_on_container_copy_construction@?$allocator@PAVEnemy@@@std@@QBE?AV12@XZ ; std::allocator<Enemy *>::select_on_container_copy_construction
PUBLIC	??0?$allocator@PAVEnemy@@@std@@QAE@XZ		; std::allocator<Enemy *>::allocator<Enemy *>
PUBLIC	??0?$allocator@PAVEnemy@@@std@@QAE@ABV01@@Z	; std::allocator<Enemy *>::allocator<Enemy *>
PUBLIC	?deallocate@?$allocator@PAVEnemy@@@std@@QAEXPAPAVEnemy@@I@Z ; std::allocator<Enemy *>::deallocate
PUBLIC	?allocate@?$allocator@PAVEnemy@@@std@@QAEPAPAVEnemy@@I@Z ; std::allocator<Enemy *>::allocate
PUBLIC	?construct@?$allocator@PAVEnemy@@@std@@QAEXPAPAVEnemy@@ABQAV3@@Z ; std::allocator<Enemy *>::construct
PUBLIC	?max_size@?$allocator@PAVEnemy@@@std@@QBEIXZ	; std::allocator<Enemy *>::max_size
PUBLIC	?max_size@?$allocator_traits@V?$allocator@PAVEnemy@@@std@@@std@@SAIABV?$allocator@PAVEnemy@@@2@@Z ; std::allocator_traits<std::allocator<Enemy *> >::max_size
PUBLIC	?select_on_container_copy_construction@?$allocator_traits@V?$allocator@PAVEnemy@@@std@@@std@@SA?AV?$allocator@PAVEnemy@@@2@ABV32@@Z ; std::allocator_traits<std::allocator<Enemy *> >::select_on_container_copy_construction
PUBLIC	?select_on_container_copy_construction@?$_Wrap_alloc@V?$allocator@PAVEnemy@@@std@@@std@@QBE?AU12@XZ ; std::_Wrap_alloc<std::allocator<Enemy *> >::select_on_container_copy_construction
PUBLIC	??0?$_Wrap_alloc@V?$allocator@PAVEnemy@@@std@@@std@@QAE@XZ ; std::_Wrap_alloc<std::allocator<Enemy *> >::_Wrap_alloc<std::allocator<Enemy *> >
PUBLIC	??0?$_Wrap_alloc@V?$allocator@PAVEnemy@@@std@@@std@@QAE@ABV?$allocator@PAVEnemy@@@1@@Z ; std::_Wrap_alloc<std::allocator<Enemy *> >::_Wrap_alloc<std::allocator<Enemy *> >
PUBLIC	?allocate@?$_Wrap_alloc@V?$allocator@PAVEnemy@@@std@@@std@@QAEPAPAVEnemy@@I@Z ; std::_Wrap_alloc<std::allocator<Enemy *> >::allocate
PUBLIC	?deallocate@?$_Wrap_alloc@V?$allocator@PAVEnemy@@@std@@@std@@QAEXPAPAVEnemy@@I@Z ; std::_Wrap_alloc<std::allocator<Enemy *> >::deallocate
PUBLIC	?max_size@?$_Wrap_alloc@V?$allocator@PAVEnemy@@@std@@@std@@QBEIXZ ; std::_Wrap_alloc<std::allocator<Enemy *> >::max_size
PUBLIC	??0?$_Vector_val@U?$_Simple_types@PAVEnemy@@@std@@@std@@QAE@XZ ; std::_Vector_val<std::_Simple_types<Enemy *> >::_Vector_val<std::_Simple_types<Enemy *> >
PUBLIC	??1?$_Vector_val@U?$_Simple_types@PAVEnemy@@@std@@@std@@QAE@XZ ; std::_Vector_val<std::_Simple_types<Enemy *> >::~_Vector_val<std::_Simple_types<Enemy *> >
PUBLIC	??0?$_Vector_alloc@$0A@U?$_Vec_base_types@PAVEnemy@@V?$allocator@PAVEnemy@@@std@@@std@@@std@@QAE@ABV?$allocator@PAVEnemy@@@1@@Z ; std::_Vector_alloc<0,std::_Vec_base_types<Enemy *,std::allocator<Enemy *> > >::_Vector_alloc<0,std::_Vec_base_types<Enemy *,std::allocator<Enemy *> > >
PUBLIC	??1?$_Vector_alloc@$0A@U?$_Vec_base_types@PAVEnemy@@V?$allocator@PAVEnemy@@@std@@@std@@@std@@QAE@XZ ; std::_Vector_alloc<0,std::_Vec_base_types<Enemy *,std::allocator<Enemy *> > >::~_Vector_alloc<0,std::_Vec_base_types<Enemy *,std::allocator<Enemy *> > >
PUBLIC	?_Alloc_proxy@?$_Vector_alloc@$0A@U?$_Vec_base_types@PAVEnemy@@V?$allocator@PAVEnemy@@@std@@@std@@@std@@QAEXXZ ; std::_Vector_alloc<0,std::_Vec_base_types<Enemy *,std::allocator<Enemy *> > >::_Alloc_proxy
PUBLIC	?_Free_proxy@?$_Vector_alloc@$0A@U?$_Vec_base_types@PAVEnemy@@V?$allocator@PAVEnemy@@@std@@@std@@@std@@QAEXXZ ; std::_Vector_alloc<0,std::_Vec_base_types<Enemy *,std::allocator<Enemy *> > >::_Free_proxy
PUBLIC	?_Getal@?$_Vector_alloc@$0A@U?$_Vec_base_types@PAVEnemy@@V?$allocator@PAVEnemy@@@std@@@std@@@std@@QBE?AU?$_Wrap_alloc@V?$allocator@PAVEnemy@@@std@@@2@XZ ; std::_Vector_alloc<0,std::_Vec_base_types<Enemy *,std::allocator<Enemy *> > >::_Getal
PUBLIC	??0?$vector@PAVEnemy@@V?$allocator@PAVEnemy@@@std@@@std@@QAE@XZ ; std::vector<Enemy *,std::allocator<Enemy *> >::vector<Enemy *,std::allocator<Enemy *> >
PUBLIC	??0?$vector@PAVEnemy@@V?$allocator@PAVEnemy@@@std@@@std@@QAE@ABV01@@Z ; std::vector<Enemy *,std::allocator<Enemy *> >::vector<Enemy *,std::allocator<Enemy *> >
PUBLIC	??0?$vector@PAVEnemy@@V?$allocator@PAVEnemy@@@std@@@std@@QAE@$$QAV01@@Z ; std::vector<Enemy *,std::allocator<Enemy *> >::vector<Enemy *,std::allocator<Enemy *> >
PUBLIC	?_Assign_rv@?$vector@PAVEnemy@@V?$allocator@PAVEnemy@@@std@@@std@@QAEX$$QAV12@@Z ; std::vector<Enemy *,std::allocator<Enemy *> >::_Assign_rv
PUBLIC	??1?$vector@PAVEnemy@@V?$allocator@PAVEnemy@@@std@@@std@@QAE@XZ ; std::vector<Enemy *,std::allocator<Enemy *> >::~vector<Enemy *,std::allocator<Enemy *> >
PUBLIC	?capacity@?$vector@PAVEnemy@@V?$allocator@PAVEnemy@@@std@@@std@@QBEIXZ ; std::vector<Enemy *,std::allocator<Enemy *> >::capacity
PUBLIC	?_Unused_capacity@?$vector@PAVEnemy@@V?$allocator@PAVEnemy@@@std@@@std@@QBEIXZ ; std::vector<Enemy *,std::allocator<Enemy *> >::_Unused_capacity
PUBLIC	?begin@?$vector@PAVEnemy@@V?$allocator@PAVEnemy@@@std@@@std@@QAE?AV?$_Vector_iterator@V?$_Vector_val@U?$_Simple_types@PAVEnemy@@@std@@@std@@@2@XZ ; std::vector<Enemy *,std::allocator<Enemy *> >::begin
PUBLIC	?begin@?$vector@PAVEnemy@@V?$allocator@PAVEnemy@@@std@@@std@@QBE?AV?$_Vector_const_iterator@V?$_Vector_val@U?$_Simple_types@PAVEnemy@@@std@@@std@@@2@XZ ; std::vector<Enemy *,std::allocator<Enemy *> >::begin
PUBLIC	?end@?$vector@PAVEnemy@@V?$allocator@PAVEnemy@@@std@@@std@@QAE?AV?$_Vector_iterator@V?$_Vector_val@U?$_Simple_types@PAVEnemy@@@std@@@std@@@2@XZ ; std::vector<Enemy *,std::allocator<Enemy *> >::end
PUBLIC	?end@?$vector@PAVEnemy@@V?$allocator@PAVEnemy@@@std@@@std@@QBE?AV?$_Vector_const_iterator@V?$_Vector_val@U?$_Simple_types@PAVEnemy@@@std@@@std@@@2@XZ ; std::vector<Enemy *,std::allocator<Enemy *> >::end
PUBLIC	?_Make_iter@?$vector@PAVEnemy@@V?$allocator@PAVEnemy@@@std@@@std@@QBE?AV?$_Vector_iterator@V?$_Vector_val@U?$_Simple_types@PAVEnemy@@@std@@@std@@@2@V?$_Vector_const_iterator@V?$_Vector_val@U?$_Simple_types@PAVEnemy@@@std@@@std@@@2@@Z ; std::vector<Enemy *,std::allocator<Enemy *> >::_Make_iter
PUBLIC	?size@?$vector@PAVEnemy@@V?$allocator@PAVEnemy@@@std@@@std@@QBEIXZ ; std::vector<Enemy *,std::allocator<Enemy *> >::size
PUBLIC	?max_size@?$vector@PAVEnemy@@V?$allocator@PAVEnemy@@@std@@@std@@QBEIXZ ; std::vector<Enemy *,std::allocator<Enemy *> >::max_size
PUBLIC	??A?$vector@PAVEnemy@@V?$allocator@PAVEnemy@@@std@@@std@@QAEAAPAVEnemy@@I@Z ; std::vector<Enemy *,std::allocator<Enemy *> >::operator[]
PUBLIC	?push_back@?$vector@PAVEnemy@@V?$allocator@PAVEnemy@@@std@@@std@@QAEXABQAVEnemy@@@Z ; std::vector<Enemy *,std::allocator<Enemy *> >::push_back
PUBLIC	?erase@?$vector@PAVEnemy@@V?$allocator@PAVEnemy@@@std@@@std@@QAE?AV?$_Vector_iterator@V?$_Vector_val@U?$_Simple_types@PAVEnemy@@@std@@@std@@@2@V?$_Vector_const_iterator@V?$_Vector_val@U?$_Simple_types@PAVEnemy@@@std@@@std@@@2@@Z ; std::vector<Enemy *,std::allocator<Enemy *> >::erase
PUBLIC	?_Buy@?$vector@PAVEnemy@@V?$allocator@PAVEnemy@@@std@@@std@@IAE_NI@Z ; std::vector<Enemy *,std::allocator<Enemy *> >::_Buy
PUBLIC	?_Destroy@?$vector@PAVEnemy@@V?$allocator@PAVEnemy@@@std@@@std@@IAEXPAPAVEnemy@@0@Z ; std::vector<Enemy *,std::allocator<Enemy *> >::_Destroy
PUBLIC	?_Grow_to@?$vector@PAVEnemy@@V?$allocator@PAVEnemy@@@std@@@std@@IBEII@Z ; std::vector<Enemy *,std::allocator<Enemy *> >::_Grow_to
PUBLIC	?_Inside@?$vector@PAVEnemy@@V?$allocator@PAVEnemy@@@std@@@std@@IBE_NPBQAVEnemy@@@Z ; std::vector<Enemy *,std::allocator<Enemy *> >::_Inside
PUBLIC	?_Reallocate@?$vector@PAVEnemy@@V?$allocator@PAVEnemy@@@std@@@std@@IAEXI@Z ; std::vector<Enemy *,std::allocator<Enemy *> >::_Reallocate
PUBLIC	?_Reserve@?$vector@PAVEnemy@@V?$allocator@PAVEnemy@@@std@@@std@@IAEXI@Z ; std::vector<Enemy *,std::allocator<Enemy *> >::_Reserve
PUBLIC	?_Tidy@?$vector@PAVEnemy@@V?$allocator@PAVEnemy@@@std@@@std@@IAEXXZ ; std::vector<Enemy *,std::allocator<Enemy *> >::_Tidy
PUBLIC	?_Xlen@?$vector@PAVEnemy@@V?$allocator@PAVEnemy@@@std@@@std@@IBEXXZ ; std::vector<Enemy *,std::allocator<Enemy *> >::_Xlen
PUBLIC	?_Orphan_range@?$vector@PAVEnemy@@V?$allocator@PAVEnemy@@@std@@@std@@IBEXPAPAVEnemy@@0@Z ; std::vector<Enemy *,std::allocator<Enemy *> >::_Orphan_range
PUBLIC	??_GEnemy@@UAEPAXI@Z				; Enemy::`scalar deleting destructor'
PUBLIC	??0?$_Iterator012@Urandom_access_iterator_tag@std@@PAVEnemy@@HPBQAV3@ABQAV3@U_Iterator_base12@2@@std@@QAE@XZ ; std::_Iterator012<std::random_access_iterator_tag,Enemy *,int,Enemy * const *,Enemy * const &,std::_Iterator_base12>::_Iterator012<std::random_access_iterator_tag,Enemy *,int,Enemy * const *,Enemy * const &,std::_Iterator_base12>
PUBLIC	??1?$_Iterator012@Urandom_access_iterator_tag@std@@PAVEnemy@@HPBQAV3@ABQAV3@U_Iterator_base12@2@@std@@QAE@XZ ; std::_Iterator012<std::random_access_iterator_tag,Enemy *,int,Enemy * const *,Enemy * const &,std::_Iterator_base12>::~_Iterator012<std::random_access_iterator_tag,Enemy *,int,Enemy * const *,Enemy * const &,std::_Iterator_base12>
PUBLIC	??0?$_Iterator012@Urandom_access_iterator_tag@std@@PAVEnemy@@HPBQAV3@ABQAV3@U_Iterator_base12@2@@std@@QAE@ABU01@@Z ; std::_Iterator012<std::random_access_iterator_tag,Enemy *,int,Enemy * const *,Enemy * const &,std::_Iterator_base12>::_Iterator012<std::random_access_iterator_tag,Enemy *,int,Enemy * const *,Enemy * const &,std::_Iterator_base12>
PUBLIC	??0?$_Vector_const_iterator@V?$_Vector_val@U?$_Simple_types@PAVEnemy@@@std@@@std@@@std@@QAE@PAPAVEnemy@@PBU_Container_base12@1@@Z ; std::_Vector_const_iterator<std::_Vector_val<std::_Simple_types<Enemy *> > >::_Vector_const_iterator<std::_Vector_val<std::_Simple_types<Enemy *> > >
PUBLIC	??D?$_Vector_const_iterator@V?$_Vector_val@U?$_Simple_types@PAVEnemy@@@std@@@std@@@std@@QBEABQAVEnemy@@XZ ; std::_Vector_const_iterator<std::_Vector_val<std::_Simple_types<Enemy *> > >::operator*
PUBLIC	??E?$_Vector_const_iterator@V?$_Vector_val@U?$_Simple_types@PAVEnemy@@@std@@@std@@@std@@QAEAAV01@XZ ; std::_Vector_const_iterator<std::_Vector_val<std::_Simple_types<Enemy *> > >::operator++
PUBLIC	??8?$_Vector_const_iterator@V?$_Vector_val@U?$_Simple_types@PAVEnemy@@@std@@@std@@@std@@QBE_NABV01@@Z ; std::_Vector_const_iterator<std::_Vector_val<std::_Simple_types<Enemy *> > >::operator==
PUBLIC	??9?$_Vector_const_iterator@V?$_Vector_val@U?$_Simple_types@PAVEnemy@@@std@@@std@@@std@@QBE_NABV01@@Z ; std::_Vector_const_iterator<std::_Vector_val<std::_Simple_types<Enemy *> > >::operator!=
PUBLIC	??M?$_Vector_const_iterator@V?$_Vector_val@U?$_Simple_types@PAVEnemy@@@std@@@std@@@std@@QBE_NABV01@@Z ; std::_Vector_const_iterator<std::_Vector_val<std::_Simple_types<Enemy *> > >::operator<
PUBLIC	?_Compat@?$_Vector_const_iterator@V?$_Vector_val@U?$_Simple_types@PAVEnemy@@@std@@@std@@@std@@QBEXABV12@@Z ; std::_Vector_const_iterator<std::_Vector_val<std::_Simple_types<Enemy *> > >::_Compat
PUBLIC	??1?$_Vector_const_iterator@V?$_Vector_val@U?$_Simple_types@PAVEnemy@@@std@@@std@@@std@@QAE@XZ ; std::_Vector_const_iterator<std::_Vector_val<std::_Simple_types<Enemy *> > >::~_Vector_const_iterator<std::_Vector_val<std::_Simple_types<Enemy *> > >
PUBLIC	??0?$_Vector_const_iterator@V?$_Vector_val@U?$_Simple_types@PAVEnemy@@@std@@@std@@@std@@QAE@ABV01@@Z ; std::_Vector_const_iterator<std::_Vector_val<std::_Simple_types<Enemy *> > >::_Vector_const_iterator<std::_Vector_val<std::_Simple_types<Enemy *> > >
PUBLIC	??0?$_Vector_iterator@V?$_Vector_val@U?$_Simple_types@PAVEnemy@@@std@@@std@@@std@@QAE@PAPAVEnemy@@PBU_Container_base12@1@@Z ; std::_Vector_iterator<std::_Vector_val<std::_Simple_types<Enemy *> > >::_Vector_iterator<std::_Vector_val<std::_Simple_types<Enemy *> > >
PUBLIC	??D?$_Vector_iterator@V?$_Vector_val@U?$_Simple_types@PAVEnemy@@@std@@@std@@@std@@QBEAAPAVEnemy@@XZ ; std::_Vector_iterator<std::_Vector_val<std::_Simple_types<Enemy *> > >::operator*
PUBLIC	??E?$_Vector_iterator@V?$_Vector_val@U?$_Simple_types@PAVEnemy@@@std@@@std@@@std@@QAEAAV01@XZ ; std::_Vector_iterator<std::_Vector_val<std::_Simple_types<Enemy *> > >::operator++
PUBLIC	??E?$_Vector_iterator@V?$_Vector_val@U?$_Simple_types@PAVEnemy@@@std@@@std@@@std@@QAE?AV01@H@Z ; std::_Vector_iterator<std::_Vector_val<std::_Simple_types<Enemy *> > >::operator++
PUBLIC	??1?$_Vector_iterator@V?$_Vector_val@U?$_Simple_types@PAVEnemy@@@std@@@std@@@std@@QAE@XZ ; std::_Vector_iterator<std::_Vector_val<std::_Simple_types<Enemy *> > >::~_Vector_iterator<std::_Vector_val<std::_Simple_types<Enemy *> > >
PUBLIC	??0?$_Vector_iterator@V?$_Vector_val@U?$_Simple_types@PAVEnemy@@@std@@@std@@@std@@QAE@ABV01@@Z ; std::_Vector_iterator<std::_Vector_val<std::_Simple_types<Enemy *> > >::_Vector_iterator<std::_Vector_val<std::_Simple_types<Enemy *> > >
PUBLIC	??0EnemySoldier@@QAE@HHMHHH@Z			; EnemySoldier::EnemySoldier
PUBLIC	?shoot@EnemySoldier@@UAEXW4Directions@@@Z	; EnemySoldier::shoot
PUBLIC	?processAndAct@EnemySoldier@@UAEXPAVLivingEntity@@@Z ; EnemySoldier::processAndAct
PUBLIC	?toChar@EnemySoldier@@MAEDXZ			; EnemySoldier::toChar
PUBLIC	??1EnemySoldier@@UAE@XZ				; EnemySoldier::~EnemySoldier
PUBLIC	??_GEnemySoldier@@UAEPAXI@Z			; EnemySoldier::`scalar deleting destructor'
PUBLIC	??0Screen@@QAE@DPAVPlayer@@@Z			; Screen::Screen
PUBLIC	?stuffAt@Screen@@QAE_NHH@Z			; Screen::stuffAt
PUBLIC	?render@Screen@@QAEXXZ				; Screen::render
PUBLIC	?setColor@Screen@@QAEXE@Z			; Screen::setColor
PUBLIC	??$?6DU?$char_traits@D@std@@V?$allocator@D@1@@std@@YAAAV?$basic_ostream@DU?$char_traits@D@std@@@0@AAV10@ABV?$basic_string@DU?$char_traits@D@std@@V?$allocator@D@2@@0@@Z ; std::operator<<<char,std::char_traits<char>,std::allocator<char> >
PUBLIC	?getInput@@YAXPAVPlayer@@@Z			; getInput
PUBLIC	?processaiwhole@@YAPAXPAX@Z			; processaiwhole
PUBLIC	?count@?$duration@_JU?$ratio@$00$0DOI@@std@@@chrono@std@@QBE_JXZ ; std::chrono::duration<__int64,std::ratio<1,1000> >::count
PUBLIC	?zero@?$duration@_JU?$ratio@$00$0DOI@@std@@@chrono@std@@SA?AV123@XZ ; std::chrono::duration<__int64,std::ratio<1,1000> >::zero
PUBLIC	??$?0H@?$duration@_JU?$ratio@$00$0DOI@@std@@@chrono@std@@QAE@ABHPAPAX@Z ; std::chrono::duration<__int64,std::ratio<1,1000> >::duration<__int64,std::ratio<1,1000> ><int>
PUBLIC	??$sleep_for@_JU?$ratio@$00$0DOI@@std@@@this_thread@std@@YAXABV?$duration@_JU?$ratio@$00$0DOI@@std@@@chrono@1@@Z ; std::this_thread::sleep_for<__int64,std::ratio<1,1000> >
PUBLIC	?processaibysingle@@YAPAXPAX@Z			; processaibysingle
PUBLIC	?levelOne@@YAXPAVScreen@@@Z			; levelOne
PUBLIC	?mainMenu@@YAXXZ				; mainMenu
PUBLIC	_main
PUBLIC	??$?9V?$allocator@D@std@@V01@@std@@YA_NABU?$_Wrap_alloc@V?$allocator@D@std@@@0@0@Z ; std::operator!=<std::allocator<char>,std::allocator<char> >
PUBLIC	??0_Sentry_base@?$basic_ostream@DU?$char_traits@D@std@@@std@@QAE@AAV12@@Z ; std::basic_ostream<char,std::char_traits<char> >::_Sentry_base::_Sentry_base
PUBLIC	??1_Sentry_base@?$basic_ostream@DU?$char_traits@D@std@@@std@@QAE@XZ ; std::basic_ostream<char,std::char_traits<char> >::_Sentry_base::~_Sentry_base
PUBLIC	??0sentry@?$basic_ostream@DU?$char_traits@D@std@@@std@@QAE@AAV12@@Z ; std::basic_ostream<char,std::char_traits<char> >::sentry::sentry
PUBLIC	??1sentry@?$basic_ostream@DU?$char_traits@D@std@@@std@@QAE@XZ ; std::basic_ostream<char,std::char_traits<char> >::sentry::~sentry
PUBLIC	??Bsentry@?$basic_ostream@DU?$char_traits@D@std@@@std@@QBEPQ?$_Bool_struct@V?$basic_ostream@DU?$char_traits@D@std@@@std@@@2@HXZ ; std::basic_ostream<char,std::char_traits<char> >::sentry::operator int std::_Bool_struct<std::basic_ostream<char,std::char_traits<char> > >::*
PUBLIC	??$addressof@QAVOnScreen@@@std@@YAPBQAVOnScreen@@ABQAV1@@Z ; std::addressof<OnScreen * const>
PUBLIC	??$construct@PAVOnScreen@@AAPAV1@@?$_Wrap_alloc@V?$allocator@PAVOnScreen@@@std@@@std@@QAEXPAPAVOnScreen@@AAPAV2@@Z ; std::_Wrap_alloc<std::allocator<OnScreen *> >::construct<OnScreen *,OnScreen * &>
PUBLIC	??$construct@PAVOnScreen@@ABQAV1@@?$_Wrap_alloc@V?$allocator@PAVOnScreen@@@std@@@std@@QAEXPAPAVOnScreen@@ABQAV2@@Z ; std::_Wrap_alloc<std::allocator<OnScreen *> >::construct<OnScreen *,OnScreen * const &>
PUBLIC	??$_Move@PAPAVOnScreen@@PAPAV1@@std@@YAPAPAVOnScreen@@PAPAV1@00@Z ; std::_Move<OnScreen * *,OnScreen * *>
PUBLIC	??$addressof@QAVLivingEntity@@@std@@YAPBQAVLivingEntity@@ABQAV1@@Z ; std::addressof<LivingEntity * const>
PUBLIC	??$construct@PAVLivingEntity@@AAPAV1@@?$_Wrap_alloc@V?$allocator@PAVLivingEntity@@@std@@@std@@QAEXPAPAVLivingEntity@@AAPAV2@@Z ; std::_Wrap_alloc<std::allocator<LivingEntity *> >::construct<LivingEntity *,LivingEntity * &>
PUBLIC	??$construct@PAVLivingEntity@@ABQAV1@@?$_Wrap_alloc@V?$allocator@PAVLivingEntity@@@std@@@std@@QAEXPAPAVLivingEntity@@ABQAV2@@Z ; std::_Wrap_alloc<std::allocator<LivingEntity *> >::construct<LivingEntity *,LivingEntity * const &>
PUBLIC	??$_Move@PAPAVLivingEntity@@PAPAV1@@std@@YAPAPAVLivingEntity@@PAPAV1@00@Z ; std::_Move<LivingEntity * *,LivingEntity * *>
PUBLIC	??$addressof@QAVBullet@@@std@@YAPBQAVBullet@@ABQAV1@@Z ; std::addressof<Bullet * const>
PUBLIC	??$construct@PAVBullet@@AAPAV1@@?$_Wrap_alloc@V?$allocator@PAVBullet@@@std@@@std@@QAEXPAPAVBullet@@AAPAV2@@Z ; std::_Wrap_alloc<std::allocator<Bullet *> >::construct<Bullet *,Bullet * &>
PUBLIC	??$construct@PAVBullet@@ABQAV1@@?$_Wrap_alloc@V?$allocator@PAVBullet@@@std@@@std@@QAEXPAPAVBullet@@ABQAV2@@Z ; std::_Wrap_alloc<std::allocator<Bullet *> >::construct<Bullet *,Bullet * const &>
PUBLIC	??$_Move@PAPAVBullet@@PAPAV1@@std@@YAPAPAVBullet@@PAPAV1@00@Z ; std::_Move<Bullet * *,Bullet * *>
PUBLIC	??$_Ucopy@V?$_Vector_const_iterator@V?$_Vector_val@U?$_Simple_types@PAVEnemy@@@std@@@std@@@std@@@?$vector@PAVEnemy@@V?$allocator@PAVEnemy@@@std@@@std@@IAEPAPAVEnemy@@V?$_Vector_const_iterator@V?$_Vector_val@U?$_Simple_types@PAVEnemy@@@std@@@std@@@1@0PAPAV2@@Z ; std::vector<Enemy *,std::allocator<Enemy *> >::_Ucopy<std::_Vector_const_iterator<std::_Vector_val<std::_Simple_types<Enemy *> > > >
PUBLIC	??$forward@V?$vector@PAVEnemy@@V?$allocator@PAVEnemy@@@std@@@std@@@std@@YA$$QAV?$vector@PAVEnemy@@V?$allocator@PAVEnemy@@@std@@@0@AAV10@@Z ; std::forward<std::vector<Enemy *,std::allocator<Enemy *> > >
PUBLIC	??$addressof@QAVEnemy@@@std@@YAPBQAVEnemy@@ABQAV1@@Z ; std::addressof<Enemy * const>
PUBLIC	??$construct@PAVEnemy@@AAPAV1@@?$_Wrap_alloc@V?$allocator@PAVEnemy@@@std@@@std@@QAEXPAPAVEnemy@@AAPAV2@@Z ; std::_Wrap_alloc<std::allocator<Enemy *> >::construct<Enemy *,Enemy * &>
PUBLIC	??$construct@PAVEnemy@@ABQAV1@@?$_Wrap_alloc@V?$allocator@PAVEnemy@@@std@@@std@@QAEXPAPAVEnemy@@ABQAV2@@Z ; std::_Wrap_alloc<std::allocator<Enemy *> >::construct<Enemy *,Enemy * const &>
PUBLIC	??$_Move@PAPAVEnemy@@PAPAV1@@std@@YAPAPAVEnemy@@PAPAV1@00@Z ; std::_Move<Enemy * *,Enemy * *>
PUBLIC	??$construct@PADAAPAD@?$_Wrap_alloc@V?$allocator@D@std@@@std@@QAEXPAPADAAPAD@Z ; std::_Wrap_alloc<std::allocator<char> >::construct<char *,char * &>
PUBLIC	??$destroy@PAD@?$_Wrap_alloc@V?$allocator@D@std@@@std@@QAEXPAPAD@Z ; std::_Wrap_alloc<std::allocator<char> >::destroy<char *>
PUBLIC	??$addressof@D@std@@YAPADAAD@Z			; std::addressof<char>
PUBLIC	??$_Destroy_range@U?$_Wrap_alloc@V?$allocator@PAVOnScreen@@@std@@@std@@@std@@YAXPAPAVOnScreen@@0AAU?$_Wrap_alloc@V?$allocator@PAVOnScreen@@@std@@@0@@Z ; std::_Destroy_range<std::_Wrap_alloc<std::allocator<OnScreen *> > >
PUBLIC	??$_Destroy_range@U?$_Wrap_alloc@V?$allocator@PAVLivingEntity@@@std@@@std@@@std@@YAXPAPAVLivingEntity@@0AAU?$_Wrap_alloc@V?$allocator@PAVLivingEntity@@@std@@@0@@Z ; std::_Destroy_range<std::_Wrap_alloc<std::allocator<LivingEntity *> > >
PUBLIC	??$_Destroy_range@U?$_Wrap_alloc@V?$allocator@PAVBullet@@@std@@@std@@@std@@YAXPAPAVBullet@@0AAU?$_Wrap_alloc@V?$allocator@PAVBullet@@@std@@@0@@Z ; std::_Destroy_range<std::_Wrap_alloc<std::allocator<Bullet *> > >
PUBLIC	??$_Destroy_range@U?$_Wrap_alloc@V?$allocator@PAVEnemy@@@std@@@std@@@std@@YAXPAPAVEnemy@@0AAU?$_Wrap_alloc@V?$allocator@PAVEnemy@@@std@@@0@@Z ; std::_Destroy_range<std::_Wrap_alloc<std::allocator<Enemy *> > >
PUBLIC	??0?$allocator@U_Container_proxy@std@@@std@@QAE@XZ ; std::allocator<std::_Container_proxy>::allocator<std::_Container_proxy>
PUBLIC	?deallocate@?$allocator@U_Container_proxy@std@@@std@@QAEXPAU_Container_proxy@2@I@Z ; std::allocator<std::_Container_proxy>::deallocate
PUBLIC	?allocate@?$allocator@U_Container_proxy@std@@@std@@QAEPAU_Container_proxy@2@I@Z ; std::allocator<std::_Container_proxy>::allocate
PUBLIC	??$construct@U_Container_proxy@std@@U12@@?$allocator@U_Container_proxy@std@@@std@@QAEXPAU_Container_proxy@1@$$QAU21@@Z ; std::allocator<std::_Container_proxy>::construct<std::_Container_proxy,std::_Container_proxy>
PUBLIC	??$destroy@U_Container_proxy@std@@@?$allocator@U_Container_proxy@std@@@std@@QAEXPAU_Container_proxy@1@@Z ; std::allocator<std::_Container_proxy>::destroy<std::_Container_proxy>
PUBLIC	??$_Umove@PAPAVOnScreen@@@?$vector@PAVOnScreen@@V?$allocator@PAVOnScreen@@@std@@@std@@IAEPAPAVOnScreen@@PAPAV2@00@Z ; std::vector<OnScreen *,std::allocator<OnScreen *> >::_Umove<OnScreen * *>
PUBLIC	??$_Umove@PAPAVLivingEntity@@@?$vector@PAVLivingEntity@@V?$allocator@PAVLivingEntity@@@std@@@std@@IAEPAPAVLivingEntity@@PAPAV2@00@Z ; std::vector<LivingEntity *,std::allocator<LivingEntity *> >::_Umove<LivingEntity * *>
PUBLIC	??$_Umove@PAPAVBullet@@@?$vector@PAVBullet@@V?$allocator@PAVBullet@@@std@@@std@@IAEPAPAVBullet@@PAPAV2@00@Z ; std::vector<Bullet *,std::allocator<Bullet *> >::_Umove<Bullet * *>
PUBLIC	??$_Umove@PAPAVEnemy@@@?$vector@PAVEnemy@@V?$allocator@PAVEnemy@@@std@@@std@@IAEPAPAVEnemy@@PAPAV2@00@Z ; std::vector<Enemy *,std::allocator<Enemy *> >::_Umove<Enemy * *>
PUBLIC	??$_Allocate@PAVEnemy@@@std@@YAPAPAVEnemy@@IPAPAV1@@Z ; std::_Allocate<Enemy *>
PUBLIC	??$_Allocate@U_Container_proxy@std@@@std@@YAPAU_Container_proxy@0@IPAU10@@Z ; std::_Allocate<std::_Container_proxy>
PUBLIC	??$_Allocate@PAVOnScreen@@@std@@YAPAPAVOnScreen@@IPAPAV1@@Z ; std::_Allocate<OnScreen *>
PUBLIC	??$_Allocate@PAVLivingEntity@@@std@@YAPAPAVLivingEntity@@IPAPAV1@@Z ; std::_Allocate<LivingEntity *>
PUBLIC	??$_Allocate@PAVBullet@@@std@@YAPAPAVBullet@@IPAPAV1@@Z ; std::_Allocate<Bullet *>
PUBLIC	??$_Allocate@D@std@@YAPADIPAD@Z			; std::_Allocate<char>
PUBLIC	??$_To_xtime@_JU?$ratio@$00$0DOI@@std@@@std@@YA?AUxtime@@ABV?$duration@_JU?$ratio@$00$0DOI@@std@@@chrono@0@@Z ; std::_To_xtime<__int64,std::ratio<1,1000> >
PUBLIC	??$?8V?$allocator@D@std@@V01@@std@@YA_NABU?$_Wrap_alloc@V?$allocator@D@std@@@0@0@Z ; std::operator==<std::allocator<char>,std::allocator<char> >
PUBLIC	??$?8DD@std@@YA_NABV?$allocator@D@0@0@Z		; std::operator==<char,char>
PUBLIC	??$forward@AAPAVOnScreen@@@std@@YAAAPAVOnScreen@@AAPAV1@@Z ; std::forward<OnScreen * &>
PUBLIC	??$construct@PAVOnScreen@@AAPAV1@@?$allocator_traits@V?$allocator@PAVOnScreen@@@std@@@std@@SAXAAV?$allocator@PAVOnScreen@@@1@PAPAVOnScreen@@AAPAV3@@Z ; std::allocator_traits<std::allocator<OnScreen *> >::construct<OnScreen *,OnScreen * &>
PUBLIC	??$forward@ABQAVOnScreen@@@std@@YAABQAVOnScreen@@ABQAV1@@Z ; std::forward<OnScreen * const &>
PUBLIC	??$construct@PAVOnScreen@@ABQAV1@@?$allocator_traits@V?$allocator@PAVOnScreen@@@std@@@std@@SAXAAV?$allocator@PAVOnScreen@@@1@PAPAVOnScreen@@ABQAV3@@Z ; std::allocator_traits<std::allocator<OnScreen *> >::construct<OnScreen *,OnScreen * const &>
PUBLIC	??$_Ptr_cat@PAVOnScreen@@PAV1@@std@@YA?AU_Scalar_ptr_iterator_tag@0@PAPAVOnScreen@@0@Z ; std::_Ptr_cat<OnScreen *,OnScreen *>
PUBLIC	??$_Move@PAPAVOnScreen@@PAPAV1@@std@@YAPAPAVOnScreen@@PAPAV1@00U_Scalar_ptr_iterator_tag@0@@Z ; std::_Move<OnScreen * *,OnScreen * *>
PUBLIC	??$forward@AAPAVLivingEntity@@@std@@YAAAPAVLivingEntity@@AAPAV1@@Z ; std::forward<LivingEntity * &>
PUBLIC	??$construct@PAVLivingEntity@@AAPAV1@@?$allocator_traits@V?$allocator@PAVLivingEntity@@@std@@@std@@SAXAAV?$allocator@PAVLivingEntity@@@1@PAPAVLivingEntity@@AAPAV3@@Z ; std::allocator_traits<std::allocator<LivingEntity *> >::construct<LivingEntity *,LivingEntity * &>
PUBLIC	??$forward@ABQAVLivingEntity@@@std@@YAABQAVLivingEntity@@ABQAV1@@Z ; std::forward<LivingEntity * const &>
PUBLIC	??$construct@PAVLivingEntity@@ABQAV1@@?$allocator_traits@V?$allocator@PAVLivingEntity@@@std@@@std@@SAXAAV?$allocator@PAVLivingEntity@@@1@PAPAVLivingEntity@@ABQAV3@@Z ; std::allocator_traits<std::allocator<LivingEntity *> >::construct<LivingEntity *,LivingEntity * const &>
PUBLIC	??$_Ptr_cat@PAVLivingEntity@@PAV1@@std@@YA?AU_Scalar_ptr_iterator_tag@0@PAPAVLivingEntity@@0@Z ; std::_Ptr_cat<LivingEntity *,LivingEntity *>
PUBLIC	??$_Move@PAPAVLivingEntity@@PAPAV1@@std@@YAPAPAVLivingEntity@@PAPAV1@00U_Scalar_ptr_iterator_tag@0@@Z ; std::_Move<LivingEntity * *,LivingEntity * *>
PUBLIC	??$forward@AAPAVBullet@@@std@@YAAAPAVBullet@@AAPAV1@@Z ; std::forward<Bullet * &>
PUBLIC	??$construct@PAVBullet@@AAPAV1@@?$allocator_traits@V?$allocator@PAVBullet@@@std@@@std@@SAXAAV?$allocator@PAVBullet@@@1@PAPAVBullet@@AAPAV3@@Z ; std::allocator_traits<std::allocator<Bullet *> >::construct<Bullet *,Bullet * &>
PUBLIC	??$forward@ABQAVBullet@@@std@@YAABQAVBullet@@ABQAV1@@Z ; std::forward<Bullet * const &>
PUBLIC	??$construct@PAVBullet@@ABQAV1@@?$allocator_traits@V?$allocator@PAVBullet@@@std@@@std@@SAXAAV?$allocator@PAVBullet@@@1@PAPAVBullet@@ABQAV3@@Z ; std::allocator_traits<std::allocator<Bullet *> >::construct<Bullet *,Bullet * const &>
PUBLIC	??$_Ptr_cat@PAVBullet@@PAV1@@std@@YA?AU_Scalar_ptr_iterator_tag@0@PAPAVBullet@@0@Z ; std::_Ptr_cat<Bullet *,Bullet *>
PUBLIC	??$_Move@PAPAVBullet@@PAPAV1@@std@@YAPAPAVBullet@@PAPAV1@00U_Scalar_ptr_iterator_tag@0@@Z ; std::_Move<Bullet * *,Bullet * *>
PUBLIC	??$_Uninitialized_copy@V?$_Vector_const_iterator@V?$_Vector_val@U?$_Simple_types@PAVEnemy@@@std@@@std@@@std@@PAPAVEnemy@@U?$_Wrap_alloc@V?$allocator@PAVEnemy@@@std@@@2@@std@@YAPAPAVEnemy@@V?$_Vector_const_iterator@V?$_Vector_val@U?$_Simple_types@PAVEnemy@@@std@@@std@@@0@0PAPAV1@AAU?$_Wrap_alloc@V?$allocator@PAVEnemy@@@std@@@0@@Z ; std::_Uninitialized_copy<std::_Vector_const_iterator<std::_Vector_val<std::_Simple_types<Enemy *> > >,Enemy * *,std::_Wrap_alloc<std::allocator<Enemy *> > >
PUBLIC	??$forward@AAPAVEnemy@@@std@@YAAAPAVEnemy@@AAPAV1@@Z ; std::forward<Enemy * &>
PUBLIC	??$construct@PAVEnemy@@AAPAV1@@?$allocator_traits@V?$allocator@PAVEnemy@@@std@@@std@@SAXAAV?$allocator@PAVEnemy@@@1@PAPAVEnemy@@AAPAV3@@Z ; std::allocator_traits<std::allocator<Enemy *> >::construct<Enemy *,Enemy * &>
PUBLIC	??$forward@ABQAVEnemy@@@std@@YAABQAVEnemy@@ABQAV1@@Z ; std::forward<Enemy * const &>
PUBLIC	??$construct@PAVEnemy@@ABQAV1@@?$allocator_traits@V?$allocator@PAVEnemy@@@std@@@std@@SAXAAV?$allocator@PAVEnemy@@@1@PAPAVEnemy@@ABQAV3@@Z ; std::allocator_traits<std::allocator<Enemy *> >::construct<Enemy *,Enemy * const &>
PUBLIC	??$_Ptr_cat@PAVEnemy@@PAV1@@std@@YA?AU_Scalar_ptr_iterator_tag@0@PAPAVEnemy@@0@Z ; std::_Ptr_cat<Enemy *,Enemy *>
PUBLIC	??$_Move@PAPAVEnemy@@PAPAV1@@std@@YAPAPAVEnemy@@PAPAV1@00U_Scalar_ptr_iterator_tag@0@@Z ; std::_Move<Enemy * *,Enemy * *>
PUBLIC	??$forward@AAPAD@std@@YAAAPADAAPAD@Z		; std::forward<char * &>
PUBLIC	??$construct@PADAAPAD@?$allocator_traits@V?$allocator@D@std@@@std@@SAXAAV?$allocator@D@1@PAPADAAPAD@Z ; std::allocator_traits<std::allocator<char> >::construct<char *,char * &>
PUBLIC	??$destroy@PAD@?$allocator_traits@V?$allocator@D@std@@@std@@SAXAAV?$allocator@D@1@PAPAD@Z ; std::allocator_traits<std::allocator<char> >::destroy<char *>
PUBLIC	??$_Destroy_range@U?$_Wrap_alloc@V?$allocator@PAVOnScreen@@@std@@@std@@@std@@YAXPAPAVOnScreen@@0AAU?$_Wrap_alloc@V?$allocator@PAVOnScreen@@@std@@@0@U_Scalar_ptr_iterator_tag@0@@Z ; std::_Destroy_range<std::_Wrap_alloc<std::allocator<OnScreen *> > >
PUBLIC	??$_Destroy_range@U?$_Wrap_alloc@V?$allocator@PAVLivingEntity@@@std@@@std@@@std@@YAXPAPAVLivingEntity@@0AAU?$_Wrap_alloc@V?$allocator@PAVLivingEntity@@@std@@@0@U_Scalar_ptr_iterator_tag@0@@Z ; std::_Destroy_range<std::_Wrap_alloc<std::allocator<LivingEntity *> > >
PUBLIC	??$_Destroy_range@U?$_Wrap_alloc@V?$allocator@PAVBullet@@@std@@@std@@@std@@YAXPAPAVBullet@@0AAU?$_Wrap_alloc@V?$allocator@PAVBullet@@@std@@@0@U_Scalar_ptr_iterator_tag@0@@Z ; std::_Destroy_range<std::_Wrap_alloc<std::allocator<Bullet *> > >
PUBLIC	??$_Destroy_range@U?$_Wrap_alloc@V?$allocator@PAVEnemy@@@std@@@std@@@std@@YAXPAPAVEnemy@@0AAU?$_Wrap_alloc@V?$allocator@PAVEnemy@@@std@@@0@U_Scalar_ptr_iterator_tag@0@@Z ; std::_Destroy_range<std::_Wrap_alloc<std::allocator<Enemy *> > >
PUBLIC	??$forward@U_Container_proxy@std@@@std@@YA$$QAU_Container_proxy@0@AAU10@@Z ; std::forward<std::_Container_proxy>
PUBLIC	??$_Uninitialized_move@PAPAVOnScreen@@PAPAV1@U?$_Wrap_alloc@V?$allocator@PAVOnScreen@@@std@@@std@@@std@@YAPAPAVOnScreen@@PAPAV1@00AAU?$_Wrap_alloc@V?$allocator@PAVOnScreen@@@std@@@0@@Z ; std::_Uninitialized_move<OnScreen * *,OnScreen * *,std::_Wrap_alloc<std::allocator<OnScreen *> > >
PUBLIC	??$_Uninitialized_move@PAPAVLivingEntity@@PAPAV1@U?$_Wrap_alloc@V?$allocator@PAVLivingEntity@@@std@@@std@@@std@@YAPAPAVLivingEntity@@PAPAV1@00AAU?$_Wrap_alloc@V?$allocator@PAVLivingEntity@@@std@@@0@@Z ; std::_Uninitialized_move<LivingEntity * *,LivingEntity * *,std::_Wrap_alloc<std::allocator<LivingEntity *> > >
PUBLIC	??$_Uninitialized_move@PAPAVBullet@@PAPAV1@U?$_Wrap_alloc@V?$allocator@PAVBullet@@@std@@@std@@@std@@YAPAPAVBullet@@PAPAV1@00AAU?$_Wrap_alloc@V?$allocator@PAVBullet@@@std@@@0@@Z ; std::_Uninitialized_move<Bullet * *,Bullet * *,std::_Wrap_alloc<std::allocator<Bullet *> > >
PUBLIC	??$_Uninitialized_move@PAPAVEnemy@@PAPAV1@U?$_Wrap_alloc@V?$allocator@PAVEnemy@@@std@@@std@@@std@@YAPAPAVEnemy@@PAPAV1@00AAU?$_Wrap_alloc@V?$allocator@PAVEnemy@@@std@@@0@@Z ; std::_Uninitialized_move<Enemy * *,Enemy * *,std::_Wrap_alloc<std::allocator<Enemy *> > >
PUBLIC	??$?N_JU?$ratio@$00$0DOI@@std@@_JU01@@chrono@std@@YA_NABV?$duration@_JU?$ratio@$00$0DOI@@std@@@01@0@Z ; std::chrono::operator<=<__int64,std::ratio<1,1000>,__int64,std::ratio<1,1000> >
PUBLIC	?count@?$duration@_JU?$ratio@$00$0DLJKMKAA@@std@@@chrono@std@@QBE_JXZ ; std::chrono::duration<__int64,std::ratio<1,1000000000> >::count
PUBLIC	??Y?$duration@_JU?$ratio@$00$0DLJKMKAA@@std@@@chrono@std@@QAEAAV012@ABV012@@Z ; std::chrono::duration<__int64,std::ratio<1,1000000000> >::operator+=
PUBLIC	??Z?$duration@_JU?$ratio@$00$0DLJKMKAA@@std@@@chrono@std@@QAEAAV012@ABV012@@Z ; std::chrono::duration<__int64,std::ratio<1,1000000000> >::operator-=
PUBLIC	??$?0_JU?$ratio@$00$0JIJGIA@@std@@@?$duration@_JU?$ratio@$00$0DLJKMKAA@@std@@@chrono@std@@QAE@ABV?$duration@_JU?$ratio@$00$0JIJGIA@@std@@@12@PAPAX@Z ; std::chrono::duration<__int64,std::ratio<1,1000000000> >::duration<__int64,std::ratio<1,1000000000> ><__int64,std::ratio<1,10000000> >
PUBLIC	??$?0_JU?$ratio@$00$0DOI@@std@@@?$duration@_JU?$ratio@$00$0DLJKMKAA@@std@@@chrono@std@@QAE@ABV?$duration@_JU?$ratio@$00$0DOI@@std@@@12@PAPAX@Z ; std::chrono::duration<__int64,std::ratio<1,1000000000> >::duration<__int64,std::ratio<1,1000000000> ><__int64,std::ratio<1,1000> >
PUBLIC	??$duration_cast@V?$duration@_JU?$ratio@$00$00@std@@@chrono@std@@_JU?$ratio@$00$0DLJKMKAA@@3@@chrono@std@@YA?AV?$duration@_JU?$ratio@$00$00@std@@@01@ABV?$duration@_JU?$ratio@$00$0DLJKMKAA@@std@@@01@@Z ; std::chrono::duration_cast<std::chrono::duration<__int64,std::ratio<1,1> >,__int64,std::ratio<1,1000000000> >
PUBLIC	?count@?$duration@_JU?$ratio@$00$00@std@@@chrono@std@@QBE_JXZ ; std::chrono::duration<__int64,std::ratio<1,1> >::count
PUBLIC	??$?0_J@?$duration@_JU?$ratio@$00$00@std@@@chrono@std@@QAE@AB_JPAPAX@Z ; std::chrono::duration<__int64,std::ratio<1,1> >::duration<__int64,std::ratio<1,1> ><__int64>
PUBLIC	??$?0_JU?$ratio@$00$00@std@@@?$duration@_JU?$ratio@$00$0DLJKMKAA@@std@@@chrono@std@@QAE@ABV?$duration@_JU?$ratio@$00$00@std@@@12@PAPAX@Z ; std::chrono::duration<__int64,std::ratio<1,1000000000> >::duration<__int64,std::ratio<1,1000000000> ><__int64,std::ratio<1,1> >
PUBLIC	??$construct@PAVOnScreen@@AAPAV1@@?$allocator@PAVOnScreen@@@std@@QAEXPAPAVOnScreen@@AAPAV2@@Z ; std::allocator<OnScreen *>::construct<OnScreen *,OnScreen * &>
PUBLIC	??$construct@PAVLivingEntity@@AAPAV1@@?$allocator@PAVLivingEntity@@@std@@QAEXPAPAVLivingEntity@@AAPAV2@@Z ; std::allocator<LivingEntity *>::construct<LivingEntity *,LivingEntity * &>
PUBLIC	??$construct@PAVBullet@@AAPAV1@@?$allocator@PAVBullet@@@std@@QAEXPAPAVBullet@@AAPAV2@@Z ; std::allocator<Bullet *>::construct<Bullet *,Bullet * &>
PUBLIC	??$_Ptr_cat@V?$_Vector_const_iterator@V?$_Vector_val@U?$_Simple_types@PAVEnemy@@@std@@@std@@@std@@PAPAVEnemy@@@std@@YA?AU_Nonscalar_ptr_iterator_tag@0@AAV?$_Vector_const_iterator@V?$_Vector_val@U?$_Simple_types@PAVEnemy@@@std@@@std@@@0@AAPAPAVEnemy@@@Z ; std::_Ptr_cat<std::_Vector_const_iterator<std::_Vector_val<std::_Simple_types<Enemy *> > >,Enemy * *>
PUBLIC	??$_Uninit_copy@V?$_Vector_const_iterator@V?$_Vector_val@U?$_Simple_types@PAVEnemy@@@std@@@std@@@std@@PAPAVEnemy@@V?$allocator@PAVEnemy@@@2@@std@@YAPAPAVEnemy@@V?$_Vector_const_iterator@V?$_Vector_val@U?$_Simple_types@PAVEnemy@@@std@@@std@@@0@0PAPAV1@AAU?$_Wrap_alloc@V?$allocator@PAVEnemy@@@std@@@0@U_Nonscalar_ptr_iterator_tag@0@@Z ; std::_Uninit_copy<std::_Vector_const_iterator<std::_Vector_val<std::_Simple_types<Enemy *> > >,Enemy * *,std::allocator<Enemy *> >
PUBLIC	??$construct@PAVEnemy@@AAPAV1@@?$allocator@PAVEnemy@@@std@@QAEXPAPAVEnemy@@AAPAV2@@Z ; std::allocator<Enemy *>::construct<Enemy *,Enemy * &>
PUBLIC	??$construct@PADAAPAD@?$allocator@D@std@@QAEXPAPADAAPAD@Z ; std::allocator<char>::construct<char *,char * &>
PUBLIC	??$destroy@PAD@?$allocator@D@std@@QAEXPAPAD@Z	; std::allocator<char>::destroy<char *>
PUBLIC	??$_Val_type@PAPAVOnScreen@@@std@@YAPAPAVOnScreen@@PAPAV1@@Z ; std::_Val_type<OnScreen * *>
PUBLIC	??$_Uninit_move@PAVOnScreen@@PAV1@PAV1@@std@@YAPAPAVOnScreen@@PAPAV1@00AAU?$_Wrap_alloc@V?$allocator@PAVOnScreen@@@std@@@0@0U_Scalar_ptr_iterator_tag@0@@Z ; std::_Uninit_move<OnScreen *,OnScreen *,OnScreen *>
PUBLIC	??$_Val_type@PAPAVLivingEntity@@@std@@YAPAPAVLivingEntity@@PAPAV1@@Z ; std::_Val_type<LivingEntity * *>
PUBLIC	??$_Uninit_move@PAVLivingEntity@@PAV1@PAV1@@std@@YAPAPAVLivingEntity@@PAPAV1@00AAU?$_Wrap_alloc@V?$allocator@PAVLivingEntity@@@std@@@0@0U_Scalar_ptr_iterator_tag@0@@Z ; std::_Uninit_move<LivingEntity *,LivingEntity *,LivingEntity *>
PUBLIC	??$_Val_type@PAPAVBullet@@@std@@YAPAPAVBullet@@PAPAV1@@Z ; std::_Val_type<Bullet * *>
PUBLIC	??$_Uninit_move@PAVBullet@@PAV1@PAV1@@std@@YAPAPAVBullet@@PAPAV1@00AAU?$_Wrap_alloc@V?$allocator@PAVBullet@@@std@@@0@0U_Scalar_ptr_iterator_tag@0@@Z ; std::_Uninit_move<Bullet *,Bullet *,Bullet *>
PUBLIC	??$_Val_type@PAPAVEnemy@@@std@@YAPAPAVEnemy@@PAPAV1@@Z ; std::_Val_type<Enemy * *>
PUBLIC	??$_Uninit_move@PAVEnemy@@PAV1@PAV1@@std@@YAPAPAVEnemy@@PAPAV1@00AAU?$_Wrap_alloc@V?$allocator@PAVEnemy@@@std@@@0@0U_Scalar_ptr_iterator_tag@0@@Z ; std::_Uninit_move<Enemy *,Enemy *,Enemy *>
PUBLIC	?zero@?$duration_values@_J@chrono@std@@SA_JXZ	; std::chrono::duration_values<__int64>::zero
PUBLIC	??$?0_J@?$duration@_JU?$ratio@$00$0DOI@@std@@@chrono@std@@QAE@AB_JPAPAX@Z ; std::chrono::duration<__int64,std::ratio<1,1000> >::duration<__int64,std::ratio<1,1000> ><__int64>
PUBLIC	??$?M_JU?$ratio@$00$0DOI@@std@@_JU01@@chrono@std@@YA_NABV?$duration@_JU?$ratio@$00$0DOI@@std@@@01@0@Z ; std::chrono::operator<<__int64,std::ratio<1,1000>,__int64,std::ratio<1,1000> >
PUBLIC	??$duration_cast@V?$duration@_JU?$ratio@$00$0DLJKMKAA@@std@@@chrono@std@@_JU?$ratio@$00$0JIJGIA@@3@@chrono@std@@YA?AV?$duration@_JU?$ratio@$00$0DLJKMKAA@@std@@@01@ABV?$duration@_JU?$ratio@$00$0JIJGIA@@std@@@01@@Z ; std::chrono::duration_cast<std::chrono::duration<__int64,std::ratio<1,1000000000> >,__int64,std::ratio<1,10000000> >
PUBLIC	??$duration_cast@V?$duration@_JU?$ratio@$00$0DLJKMKAA@@std@@@chrono@std@@_JU?$ratio@$00$0DOI@@3@@chrono@std@@YA?AV?$duration@_JU?$ratio@$00$0DLJKMKAA@@std@@@01@ABV?$duration@_JU?$ratio@$00$0DOI@@std@@@01@@Z ; std::chrono::duration_cast<std::chrono::duration<__int64,std::ratio<1,1000000000> >,__int64,std::ratio<1,1000> >
PUBLIC	??$duration_cast@V?$duration@_JU?$ratio@$00$0DLJKMKAA@@std@@@chrono@std@@_JU?$ratio@$00$00@3@@chrono@std@@YA?AV?$duration@_JU?$ratio@$00$0DLJKMKAA@@std@@@01@ABV?$duration@_JU?$ratio@$00$00@std@@@01@@Z ; std::chrono::duration_cast<std::chrono::duration<__int64,std::ratio<1,1000000000> >,__int64,std::ratio<1,1> >
PUBLIC	??$_Debug_range@V?$_Vector_const_iterator@V?$_Vector_val@U?$_Simple_types@PAVEnemy@@@std@@@std@@@std@@@std@@YAXV?$_Vector_const_iterator@V?$_Vector_val@U?$_Simple_types@PAVEnemy@@@std@@@std@@@0@0PB_WI@Z ; std::_Debug_range<std::_Vector_const_iterator<std::_Vector_val<std::_Simple_types<Enemy *> > > >
PUBLIC	??$_Debug_pointer@PAVEnemy@@@std@@YAXPAPAVEnemy@@PB_WI@Z ; std::_Debug_pointer<Enemy *>
PUBLIC	??$destroy@PAVEnemy@@@?$_Wrap_alloc@V?$allocator@PAVEnemy@@@std@@@std@@QAEXPAPAVEnemy@@@Z ; std::_Wrap_alloc<std::allocator<Enemy *> >::destroy<Enemy *>
PUBLIC	??$_Debug_range@PAPAVOnScreen@@@std@@YAXPAPAVOnScreen@@0PB_WI@Z ; std::_Debug_range<OnScreen * *>
PUBLIC	??$_Debug_pointer@PAVOnScreen@@@std@@YAXPAPAVOnScreen@@PB_WI@Z ; std::_Debug_pointer<OnScreen *>
PUBLIC	??$_Debug_range@PAPAVLivingEntity@@@std@@YAXPAPAVLivingEntity@@0PB_WI@Z ; std::_Debug_range<LivingEntity * *>
PUBLIC	??$_Debug_pointer@PAVLivingEntity@@@std@@YAXPAPAVLivingEntity@@PB_WI@Z ; std::_Debug_pointer<LivingEntity *>
PUBLIC	??$_Debug_range@PAPAVBullet@@@std@@YAXPAPAVBullet@@0PB_WI@Z ; std::_Debug_range<Bullet * *>
PUBLIC	??$_Debug_pointer@PAVBullet@@@std@@YAXPAPAVBullet@@PB_WI@Z ; std::_Debug_pointer<Bullet *>
PUBLIC	??$_Debug_range@PAPAVEnemy@@@std@@YAXPAPAVEnemy@@0PB_WI@Z ; std::_Debug_range<Enemy * *>
PUBLIC	??$?0_J@?$duration@_JU?$ratio@$00$0DLJKMKAA@@std@@@chrono@std@@QAE@AB_JPAPAX@Z ; std::chrono::duration<__int64,std::ratio<1,1000000000> >::duration<__int64,std::ratio<1,1000000000> ><__int64>
PUBLIC	??$_Iter_cat@V?$_Vector_const_iterator@V?$_Vector_val@U?$_Simple_types@PAVEnemy@@@std@@@std@@@std@@@std@@YA?AUrandom_access_iterator_tag@0@ABV?$_Vector_const_iterator@V?$_Vector_val@U?$_Simple_types@PAVEnemy@@@std@@@std@@@0@@Z ; std::_Iter_cat<std::_Vector_const_iterator<std::_Vector_val<std::_Simple_types<Enemy *> > > >
PUBLIC	??$_Debug_range2@V?$_Vector_const_iterator@V?$_Vector_val@U?$_Simple_types@PAVEnemy@@@std@@@std@@@std@@@std@@YAXV?$_Vector_const_iterator@V?$_Vector_val@U?$_Simple_types@PAVEnemy@@@std@@@std@@@0@0PB_WIUrandom_access_iterator_tag@0@@Z ; std::_Debug_range2<std::_Vector_const_iterator<std::_Vector_val<std::_Simple_types<Enemy *> > > >
PUBLIC	??$destroy@PAVEnemy@@@?$allocator_traits@V?$allocator@PAVEnemy@@@std@@@std@@SAXAAV?$allocator@PAVEnemy@@@1@PAPAVEnemy@@@Z ; std::allocator_traits<std::allocator<Enemy *> >::destroy<Enemy *>
PUBLIC	??$_Iter_cat@PAPAVOnScreen@@@std@@YA?AUrandom_access_iterator_tag@0@ABQAPAVOnScreen@@@Z ; std::_Iter_cat<OnScreen * *>
PUBLIC	??$_Debug_range2@PAPAVOnScreen@@@std@@YAXPAPAVOnScreen@@0PB_WIUrandom_access_iterator_tag@0@@Z ; std::_Debug_range2<OnScreen * *>
PUBLIC	??$_Iter_cat@PAPAVLivingEntity@@@std@@YA?AUrandom_access_iterator_tag@0@ABQAPAVLivingEntity@@@Z ; std::_Iter_cat<LivingEntity * *>
PUBLIC	??$_Debug_range2@PAPAVLivingEntity@@@std@@YAXPAPAVLivingEntity@@0PB_WIUrandom_access_iterator_tag@0@@Z ; std::_Debug_range2<LivingEntity * *>
PUBLIC	??$_Iter_cat@PAPAVBullet@@@std@@YA?AUrandom_access_iterator_tag@0@ABQAPAVBullet@@@Z ; std::_Iter_cat<Bullet * *>
PUBLIC	??$_Debug_range2@PAPAVBullet@@@std@@YAXPAPAVBullet@@0PB_WIUrandom_access_iterator_tag@0@@Z ; std::_Debug_range2<Bullet * *>
PUBLIC	??$_Iter_cat@PAPAVEnemy@@@std@@YA?AUrandom_access_iterator_tag@0@ABQAPAVEnemy@@@Z ; std::_Iter_cat<Enemy * *>
PUBLIC	??$_Debug_range2@PAPAVEnemy@@@std@@YAXPAPAVEnemy@@0PB_WIUrandom_access_iterator_tag@0@@Z ; std::_Debug_range2<Enemy * *>
PUBLIC	??$_Debug_pointer@V?$_Vector_const_iterator@V?$_Vector_val@U?$_Simple_types@PAVEnemy@@@std@@@std@@@std@@@std@@YAXAAV?$_Vector_const_iterator@V?$_Vector_val@U?$_Simple_types@PAVEnemy@@@std@@@std@@@0@PB_WI@Z ; std::_Debug_pointer<std::_Vector_const_iterator<std::_Vector_val<std::_Simple_types<Enemy *> > > >
PUBLIC	??$destroy@PAVEnemy@@@?$allocator@PAVEnemy@@@std@@QAEXPAPAVEnemy@@@Z ; std::allocator<Enemy *>::destroy<Enemy *>
PUBLIC	??_C@_1JA@NLMHOKKJ@?$AAe?$AA?3?$AA?2?$AAp?$AAr?$AAo?$AAg?$AAr?$AAa?$AAm?$AA?5?$AAf?$AAi?$AAl?$AAe?$AAs?$AA?5?$AA?$CI?$AAx?$AA8?$AA6?$AA?$CJ?$AA?2?$AAm?$AAi?$AAc?$AAr?$AAo?$AAs?$AAo?$AAf?$AAt@ ; `string'
PUBLIC	??_C@_1DC@POOIKBAO@?$AAI?$AAT?$AAE?$AAR?$AAA?$AAT?$AAO?$AAR?$AA?5?$AAL?$AAI?$AAS?$AAT?$AA?5?$AAC?$AAO?$AAR?$AAR?$AAU?$AAP?$AAT?$AAE?$AAD?$AA?$CB?$AA?$AA@ ; `string'
PUBLIC	?npos@?$basic_string@DU?$char_traits@D@std@@V?$allocator@D@2@@std@@2IB ; std::basic_string<char,std::char_traits<char>,std::allocator<char> >::npos
PUBLIC	??_7error_category@std@@6B@			; std::error_category::`vftable'
PUBLIC	??_7_Generic_error_category@std@@6B@		; std::_Generic_error_category::`vftable'
PUBLIC	??_C@_07DCLBNMLN@generic?$AA@			; `string'
PUBLIC	??_C@_0O@BFJCFAAK@unknown?5error?$AA@		; `string'
PUBLIC	??_7_Iostream_error_category@std@@6B@		; std::_Iostream_error_category::`vftable'
PUBLIC	??_C@_08LLGCOLLL@iostream?$AA@			; `string'
PUBLIC	??_C@_0BG@PADBLCHM@iostream?5stream?5error?$AA@	; `string'
PUBLIC	??_7_System_error_category@std@@6B@		; std::_System_error_category::`vftable'
PUBLIC	??_C@_06FHFOAHML@system?$AA@			; `string'
PUBLIC	?_Generic_object@?$_Error_objects@H@std@@2V_Generic_error_category@2@A ; std::_Error_objects<int>::_Generic_object
PUBLIC	?_Iostream_object@?$_Error_objects@H@std@@2V_Iostream_error_category@2@A ; std::_Error_objects<int>::_Iostream_object
PUBLIC	?_System_object@?$_Error_objects@H@std@@2V_System_error_category@2@A ; std::_Error_objects<int>::_System_object
PUBLIC	?id@?$num_put@DV?$back_insert_iterator@V?$basic_string@DU?$char_traits@D@std@@V?$allocator@D@2@@std@@@std@@@std@@2V0locale@2@A ; std::num_put<char,std::back_insert_iterator<std::basic_string<char,std::char_traits<char>,std::allocator<char> > > >::id
PUBLIC	?id@?$num_put@_WV?$back_insert_iterator@V?$basic_string@_WU?$char_traits@_W@std@@V?$allocator@_W@2@@std@@@std@@@std@@2V0locale@2@A ; std::num_put<wchar_t,std::back_insert_iterator<std::basic_string<wchar_t,std::char_traits<wchar_t>,std::allocator<wchar_t> > > >::id
PUBLIC	??_C@_15GANGMFKL@?$AA?$CF?$AAs?$AA?$AA@		; `string'
PUBLIC	??_C@_03LCPHGAHP@cls?$AA@			; `string'
PUBLIC	??_C@_05KKCIMGE@error?$AA@			; `string'
PUBLIC	??_C@_05PDJBBECF@pause?$AA@			; `string'
PUBLIC	?visibleItems@OnScreen@@2V?$vector@PAVOnScreen@@V?$allocator@PAVOnScreen@@@std@@@std@@A ; OnScreen::visibleItems
PUBLIC	??_7OnScreen@@6B@				; OnScreen::`vftable'
PUBLIC	?livingThings@LivingEntity@@2V?$vector@PAVLivingEntity@@V?$allocator@PAVLivingEntity@@@std@@@std@@A ; LivingEntity::livingThings
PUBLIC	??_7LivingEntity@@6B@				; LivingEntity::`vftable'
PUBLIC	?bullets@Bullet@@1V?$vector@PAVBullet@@V?$allocator@PAVBullet@@@std@@@std@@A ; Bullet::bullets
PUBLIC	??_7Bullet@@6B@					; Bullet::`vftable'
PUBLIC	??_7FightingEntity@@6B@				; FightingEntity::`vftable'
PUBLIC	??_7Player@@6B@					; Player::`vftable'
PUBLIC	?enemies@Enemy@@1V?$vector@PAVEnemy@@V?$allocator@PAVEnemy@@@std@@@std@@A ; Enemy::enemies
PUBLIC	??_7Enemy@@6B@					; Enemy::`vftable'
PUBLIC	??_7EnemySoldier@@6B@				; EnemySoldier::`vftable'
PUBLIC	??_C@_08OBFFCDMO@Color?5?$EA?$EA?$AA@		; `string'
PUBLIC	??_C@_08NFNKKEKP@Color?507?$AA@			; `string'
PUBLIC	??_C@_09LCCGMOOO@?5Health?3?5?$AA@		; `string'
PUBLIC	??_C@_0L@BBALFDB@?3?5?5Ammo?3?5?5?$AA@		; `string'
PUBLIC	??_C@_01EEMJAFIK@?6?$AA@			; `string'
PUBLIC	??_C@_0CI@FIKJMPDF@Anything?5else?0?5and?5it?8ll?5just?5be@ ; `string'
PUBLIC	??_C@_0EB@EJGMMLCB@Now?0?5do?5you?5want?5?$CI0?$CJ?5no?5colors?5a@ ; `string'
PUBLIC	??_C@_0EE@NEGOOMNL@A?5little?5?$CIglitchy?$CJ?5game?5that?5I?5m@ ; `string'
PUBLIC	??_C@_08IDPINFPD@Player?51?$AA@			; `string'
PUBLIC	??_C@_08DGMLKBON@you?5win?$CB?$AA@		; `string'
PUBLIC	??_C@_09GBKDONCB@you?5lose?$CB?$AA@		; `string'
PUBLIC	??_C@_1IO@DBKIKIHF@?$AAe?$AA?3?$AA?2?$AAp?$AAr?$AAo?$AAg?$AAr?$AAa?$AAm?$AA?5?$AAf?$AAi?$AAl?$AAe?$AAs?$AA?5?$AA?$CI?$AAx?$AA8?$AA6?$AA?$CJ?$AA?2?$AAm?$AAi?$AAc?$AAr?$AAo?$AAs?$AAo?$AAf?$AAt@ ; `string'
PUBLIC	??_C@_1IM@OHMKGEOK@?$AAe?$AA?3?$AA?2?$AAp?$AAr?$AAo?$AAg?$AAr?$AAa?$AAm?$AA?5?$AAf?$AAi?$AAl?$AAe?$AAs?$AA?5?$AA?$CI?$AAx?$AA8?$AA6?$AA?$CJ?$AA?2?$AAm?$AAi?$AAc?$AAr?$AAo?$AAs?$AAo?$AAf?$AAt@ ; `string'
PUBLIC	??_C@_1EI@HGIDLLCM@?$AAv?$AAe?$AAc?$AAt?$AAo?$AAr?$AA?5?$AAe?$AAr?$AAa?$AAs?$AAe?$AA?5?$AAi?$AAt?$AAe?$AAr?$AAa?$AAt?$AAo?$AAr?$AA?5?$AAo?$AAu?$AAt?$AAs?$AAi?$AAd?$AAe?$AA?5?$AAr?$AAa@ ; `string'
PUBLIC	??_C@_1DM@LHGCHCBA@?$AAv?$AAe?$AAc?$AAt?$AAo?$AAr?$AA?5?$AAs?$AAu?$AAb?$AAs?$AAc?$AAr?$AAi?$AAp?$AAt?$AA?5?$AAo?$AAu?$AAt?$AA?5?$AAo?$AAf?$AA?5?$AAr?$AAa?$AAn?$AAg?$AAe?$AA?$AA@ ; `string'
PUBLIC	??_C@_0CE@OFMIGAMM@Standard?5C?$CL?$CL?5Libraries?5Out?5of?5Ra@ ; `string'
PUBLIC	??_C@_1FG@IBPIFFN@?$AA?$CC?$AAS?$AAt?$AAa?$AAn?$AAd?$AAa?$AAr?$AAd?$AA?5?$AAC?$AA?$CL?$AA?$CL?$AA?5?$AAL?$AAi?$AAb?$AAr?$AAa?$AAr?$AAi?$AAe?$AAs?$AA?5?$AAO?$AAu?$AAt?$AA?5?$AAo?$AAf?$AA?5?$AAR@ ; `string'
PUBLIC	??_C@_1JO@DMPMMILD@?$AAs?$AAt?$AAd?$AA?3?$AA?3?$AAv?$AAe?$AAc?$AAt?$AAo?$AAr?$AA?$DM?$AAc?$AAl?$AAa?$AAs?$AAs?$AA?5?$AAB?$AAu?$AAl?$AAl?$AAe?$AAt?$AA?5?$AA?$CK?$AA?0?$AAc?$AAl?$AAa?$AAs?$AAs@ ; `string'
PUBLIC	??_C@_1BO@MEPPHOO@?$AA?$CC?$AAo?$AAu?$AAt?$AA?5?$AAo?$AAf?$AA?5?$AAr?$AAa?$AAn?$AAg?$AAe?$AA?$CC?$AA?$AA@ ; `string'
PUBLIC	??_C@_1JK@MCCMGKDA@?$AAs?$AAt?$AAd?$AA?3?$AA?3?$AAv?$AAe?$AAc?$AAt?$AAo?$AAr?$AA?$DM?$AAc?$AAl?$AAa?$AAs?$AAs?$AA?5?$AAE?$AAn?$AAe?$AAm?$AAy?$AA?5?$AA?$CK?$AA?0?$AAc?$AAl?$AAa?$AAs?$AAs?$AA?5@ ; `string'
PUBLIC	??_C@_1EG@FOHJJHAC@?$AAv?$AAe?$AAc?$AAt?$AAo?$AAr?$AA?5?$AAi?$AAt?$AAe?$AAr?$AAa?$AAt?$AAo?$AAr?$AA?5?$AAn?$AAo?$AAt?$AA?5?$AAd?$AAe?$AAr?$AAe?$AAf?$AAe?$AAr?$AAe?$AAn?$AAc?$AAa?$AAb@ ; `string'
PUBLIC	??_C@_1NO@JHOOOHOP@?$AAs?$AAt?$AAd?$AA?3?$AA?3?$AA_?$AAV?$AAe?$AAc?$AAt?$AAo?$AAr?$AA_?$AAc?$AAo?$AAn?$AAs?$AAt?$AA_?$AAi?$AAt?$AAe?$AAr?$AAa?$AAt?$AAo?$AAr?$AA?$DM?$AAc?$AAl?$AAa?$AAs@ ; `string'
PUBLIC	??_C@_1OG@OAIFONBP@?$AAs?$AAt?$AAd?$AA?3?$AA?3?$AA_?$AAV?$AAe?$AAc?$AAt?$AAo?$AAr?$AA_?$AAc?$AAo?$AAn?$AAs?$AAt?$AA_?$AAi?$AAt?$AAe?$AAr?$AAa?$AAt?$AAo?$AAr?$AA?$DM?$AAc?$AAl?$AAa?$AAs@ ; `string'
PUBLIC	??_C@_1NK@ILKCDHLI@?$AAs?$AAt?$AAd?$AA?3?$AA?3?$AA_?$AAV?$AAe?$AAc?$AAt?$AAo?$AAr?$AA_?$AAc?$AAo?$AAn?$AAs?$AAt?$AA_?$AAi?$AAt?$AAe?$AAr?$AAa?$AAt?$AAo?$AAr?$AA?$DM?$AAc?$AAl?$AAa?$AAs@ ; `string'
PUBLIC	??_C@_1NI@JDFLGOO@?$AAs?$AAt?$AAd?$AA?3?$AA?3?$AA_?$AAV?$AAe?$AAc?$AAt?$AAo?$AAr?$AA_?$AAc?$AAo?$AAn?$AAs?$AAt?$AA_?$AAi?$AAt?$AAe?$AAr?$AAa?$AAt?$AAo?$AAr?$AA?$DM?$AAc?$AAl?$AAa?$AAs@ ; `string'
PUBLIC	??_C@_0BI@CFPLBAOH@invalid?5string?5position?$AA@ ; `string'
PUBLIC	??_C@_0BD@OLBABOEK@vector?$DMT?$DO?5too?5long?$AA@ ; `string'
PUBLIC	??_C@_1EE@EJDKCLKB@?$AAv?$AAe?$AAc?$AAt?$AAo?$AAr?$AA?5?$AAi?$AAt?$AAe?$AAr?$AAa?$AAt?$AAo?$AAr?$AA?5?$AAn?$AAo?$AAt?$AA?5?$AAi?$AAn?$AAc?$AAr?$AAe?$AAm?$AAe?$AAn?$AAt?$AAa?$AAb?$AAl@ ; `string'
PUBLIC	??_C@_1OA@FLOHPEIM@?$AAs?$AAt?$AAd?$AA?3?$AA?3?$AA_?$AAV?$AAe?$AAc?$AAt?$AAo?$AAr?$AA_?$AAc?$AAo?$AAn?$AAs?$AAt?$AA_?$AAi?$AAt?$AAe?$AAr?$AAa?$AAt?$AAo?$AAr?$AA?$DM?$AAc?$AAl?$AAa?$AAs@ ; `string'
PUBLIC	??_C@_1DM@HINDPMBP@?$AAv?$AAe?$AAc?$AAt?$AAo?$AAr?$AA?5?$AAi?$AAt?$AAe?$AAr?$AAa?$AAt?$AAo?$AAr?$AAs?$AA?5?$AAi?$AAn?$AAc?$AAo?$AAm?$AAp?$AAa?$AAt?$AAi?$AAb?$AAl?$AAe?$AA?$AA@ ; `string'
PUBLIC	??_C@_0CI@FNPHFCCM@Standard?5C?$CL?$CL?5Libraries?5Invalid?5A@ ; `string'
PUBLIC	??_C@_1FO@GJIHNDLM@?$AA?$CC?$AAS?$AAt?$AAa?$AAn?$AAd?$AAa?$AAr?$AAd?$AA?5?$AAC?$AA?$CL?$AA?$CL?$AA?5?$AAL?$AAi?$AAb?$AAr?$AAa?$AAr?$AAi?$AAe?$AAs?$AA?5?$AAI?$AAn?$AAv?$AAa?$AAl?$AAi?$AAd?$AA?5@ ; `string'
PUBLIC	??_C@_1NI@HEJHPDDM@?$AAs?$AAt?$AAd?$AA?3?$AA?3?$AA_?$AAV?$AAe?$AAc?$AAt?$AAo?$AAr?$AA_?$AAc?$AAo?$AAn?$AAs?$AAt?$AA_?$AAi?$AAt?$AAe?$AAr?$AAa?$AAt?$AAo?$AAr?$AA?$DM?$AAc?$AAl?$AAa?$AAs@ ; `string'
PUBLIC	??_C@_1CG@JNLFBNGN@?$AA?$CC?$AAi?$AAn?$AAv?$AAa?$AAl?$AAi?$AAd?$AA?5?$AAa?$AAr?$AAg?$AAu?$AAm?$AAe?$AAn?$AAt?$AA?$CC?$AA?$AA@ ; `string'
PUBLIC	??_C@_1OI@KPIOILEE@?$AAs?$AAt?$AAd?$AA?3?$AA?3?$AA_?$AAV?$AAe?$AAc?$AAt?$AAo?$AAr?$AA_?$AAc?$AAo?$AAn?$AAs?$AAt?$AA_?$AAi?$AAt?$AAe?$AAr?$AAa?$AAt?$AAo?$AAr?$AA?$DM?$AAc?$AAl?$AAa?$AAs@ ; `string'
PUBLIC	??_C@_1OA@GBDFFJPG@?$AAs?$AAt?$AAd?$AA?3?$AA?3?$AA_?$AAV?$AAe?$AAc?$AAt?$AAo?$AAr?$AA_?$AAc?$AAo?$AAn?$AAs?$AAt?$AA_?$AAi?$AAt?$AAe?$AAr?$AAa?$AAt?$AAo?$AAr?$AA?$DM?$AAc?$AAl?$AAa?$AAs@ ; `string'
PUBLIC	??_C@_1NM@CIMOPBIH@?$AAs?$AAt?$AAd?$AA?3?$AA?3?$AA_?$AAV?$AAe?$AAc?$AAt?$AAo?$AAr?$AA_?$AAc?$AAo?$AAn?$AAs?$AAt?$AA_?$AAi?$AAt?$AAe?$AAr?$AAa?$AAt?$AAo?$AAr?$AA?$DM?$AAc?$AAl?$AAa?$AAs@ ; `string'
PUBLIC	??_C@_1NE@PDAEDKHB@?$AAs?$AAt?$AAd?$AA?3?$AA?3?$AA_?$AAV?$AAe?$AAc?$AAt?$AAo?$AAr?$AA_?$AAc?$AAo?$AAn?$AAs?$AAt?$AA_?$AAi?$AAt?$AAe?$AAr?$AAa?$AAt?$AAo?$AAr?$AA?$DM?$AAc?$AAl?$AAa?$AAs@ ; `string'
PUBLIC	??_C@_1NK@FOJADKHE@?$AAs?$AAt?$AAd?$AA?3?$AA?3?$AA_?$AAV?$AAe?$AAc?$AAt?$AAo?$AAr?$AA_?$AAc?$AAo?$AAn?$AAs?$AAt?$AA_?$AAi?$AAt?$AAe?$AAr?$AAa?$AAt?$AAo?$AAr?$AA?$DM?$AAc?$AAl?$AAa?$AAs@ ; `string'
PUBLIC	??_C@_1NC@HPHJKDBI@?$AAs?$AAt?$AAd?$AA?3?$AA?3?$AA_?$AAV?$AAe?$AAc?$AAt?$AAo?$AAr?$AA_?$AAc?$AAo?$AAn?$AAs?$AAt?$AA_?$AAi?$AAt?$AAe?$AAr?$AAa?$AAt?$AAo?$AAr?$AA?$DM?$AAc?$AAl?$AAa?$AAs@ ; `string'
PUBLIC	??_C@_0BA@JFNIOLAK@string?5too?5long?$AA@	; `string'
PUBLIC	??_C@_1CK@EOPGIILJ@?$AAi?$AAn?$AAv?$AAa?$AAl?$AAi?$AAd?$AA?5?$AAn?$AAu?$AAl?$AAl?$AA?5?$AAp?$AAo?$AAi?$AAn?$AAt?$AAe?$AAr?$AA?$AA@ ; `string'
PUBLIC	??_C@_1CO@DGLIKNHI@?$AAi?$AAn?$AAv?$AAa?$AAl?$AAi?$AAd?$AA?5?$AAi?$AAt?$AAe?$AAr?$AAa?$AAt?$AAo?$AAr?$AA?5?$AAr?$AAa?$AAn?$AAg?$AAe?$AA?$AA@ ; `string'
PUBLIC	??_C@_1IO@NPCEFBKE@?$AAe?$AA?3?$AA?2?$AAp?$AAr?$AAo?$AAg?$AAr?$AAa?$AAm?$AA?5?$AAf?$AAi?$AAl?$AAe?$AAs?$AA?5?$AA?$CI?$AAx?$AA8?$AA6?$AA?$CJ?$AA?2?$AAm?$AAi?$AAc?$AAr?$AAo?$AAs?$AAo?$AAf?$AAt@ ; `string'
PUBLIC	??_R4error_category@std@@6B@			; std::error_category::`RTTI Complete Object Locator'
PUBLIC	??_R0?AVerror_category@std@@@8			; std::error_category `RTTI Type Descriptor'
PUBLIC	??_R3error_category@std@@8			; std::error_category::`RTTI Class Hierarchy Descriptor'
PUBLIC	??_R2error_category@std@@8			; std::error_category::`RTTI Base Class Array'
PUBLIC	??_R1A@?0A@EA@error_category@std@@8		; std::error_category::`RTTI Base Class Descriptor at (0,-1,0,64)'
PUBLIC	??_R4_Generic_error_category@std@@6B@		; std::_Generic_error_category::`RTTI Complete Object Locator'
PUBLIC	??_R0?AV_Generic_error_category@std@@@8		; std::_Generic_error_category `RTTI Type Descriptor'
PUBLIC	??_R3_Generic_error_category@std@@8		; std::_Generic_error_category::`RTTI Class Hierarchy Descriptor'
PUBLIC	??_R2_Generic_error_category@std@@8		; std::_Generic_error_category::`RTTI Base Class Array'
PUBLIC	??_R1A@?0A@EA@_Generic_error_category@std@@8	; std::_Generic_error_category::`RTTI Base Class Descriptor at (0,-1,0,64)'
PUBLIC	??_R4_Iostream_error_category@std@@6B@		; std::_Iostream_error_category::`RTTI Complete Object Locator'
PUBLIC	??_R0?AV_Iostream_error_category@std@@@8	; std::_Iostream_error_category `RTTI Type Descriptor'
PUBLIC	??_R3_Iostream_error_category@std@@8		; std::_Iostream_error_category::`RTTI Class Hierarchy Descriptor'
PUBLIC	??_R2_Iostream_error_category@std@@8		; std::_Iostream_error_category::`RTTI Base Class Array'
PUBLIC	??_R1A@?0A@EA@_Iostream_error_category@std@@8	; std::_Iostream_error_category::`RTTI Base Class Descriptor at (0,-1,0,64)'
PUBLIC	??_R4_System_error_category@std@@6B@		; std::_System_error_category::`RTTI Complete Object Locator'
PUBLIC	??_R0?AV_System_error_category@std@@@8		; std::_System_error_category `RTTI Type Descriptor'
PUBLIC	??_R3_System_error_category@std@@8		; std::_System_error_category::`RTTI Class Hierarchy Descriptor'
PUBLIC	??_R2_System_error_category@std@@8		; std::_System_error_category::`RTTI Base Class Array'
PUBLIC	??_R1A@?0A@EA@_System_error_category@std@@8	; std::_System_error_category::`RTTI Base Class Descriptor at (0,-1,0,64)'
PUBLIC	??_R4Player@@6B@				; Player::`RTTI Complete Object Locator'
PUBLIC	??_R0?AVPlayer@@@8				; Player `RTTI Type Descriptor'
PUBLIC	??_R3Player@@8					; Player::`RTTI Class Hierarchy Descriptor'
PUBLIC	??_R2Player@@8					; Player::`RTTI Base Class Array'
PUBLIC	??_R1A@?0A@EA@Player@@8				; Player::`RTTI Base Class Descriptor at (0,-1,0,64)'
PUBLIC	??_R1A@?0A@EA@FightingEntity@@8			; FightingEntity::`RTTI Base Class Descriptor at (0,-1,0,64)'
PUBLIC	??_R0?AVFightingEntity@@@8			; FightingEntity `RTTI Type Descriptor'
PUBLIC	??_R3FightingEntity@@8				; FightingEntity::`RTTI Class Hierarchy Descriptor'
PUBLIC	??_R2FightingEntity@@8				; FightingEntity::`RTTI Base Class Array'
PUBLIC	??_R1A@?0A@EA@LivingEntity@@8			; LivingEntity::`RTTI Base Class Descriptor at (0,-1,0,64)'
PUBLIC	??_R0?AVLivingEntity@@@8			; LivingEntity `RTTI Type Descriptor'
PUBLIC	??_R3LivingEntity@@8				; LivingEntity::`RTTI Class Hierarchy Descriptor'
PUBLIC	??_R2LivingEntity@@8				; LivingEntity::`RTTI Base Class Array'
PUBLIC	??_R1A@?0A@EA@OnScreen@@8			; OnScreen::`RTTI Base Class Descriptor at (0,-1,0,64)'
PUBLIC	??_R0?AVOnScreen@@@8				; OnScreen `RTTI Type Descriptor'
PUBLIC	??_R3OnScreen@@8				; OnScreen::`RTTI Class Hierarchy Descriptor'
PUBLIC	??_R2OnScreen@@8				; OnScreen::`RTTI Base Class Array'
PUBLIC	??_R4Bullet@@6B@				; Bullet::`RTTI Complete Object Locator'
PUBLIC	??_R0?AVBullet@@@8				; Bullet `RTTI Type Descriptor'
PUBLIC	??_R3Bullet@@8					; Bullet::`RTTI Class Hierarchy Descriptor'
PUBLIC	??_R2Bullet@@8					; Bullet::`RTTI Base Class Array'
PUBLIC	??_R1A@?0A@EA@Bullet@@8				; Bullet::`RTTI Base Class Descriptor at (0,-1,0,64)'
PUBLIC	??_R4OnScreen@@6B@				; OnScreen::`RTTI Complete Object Locator'
PUBLIC	??_R4LivingEntity@@6B@				; LivingEntity::`RTTI Complete Object Locator'
PUBLIC	??_R4FightingEntity@@6B@			; FightingEntity::`RTTI Complete Object Locator'
PUBLIC	??_R4Enemy@@6B@					; Enemy::`RTTI Complete Object Locator'
PUBLIC	??_R0?AVEnemy@@@8				; Enemy `RTTI Type Descriptor'
PUBLIC	??_R3Enemy@@8					; Enemy::`RTTI Class Hierarchy Descriptor'
PUBLIC	??_R2Enemy@@8					; Enemy::`RTTI Base Class Array'
PUBLIC	??_R1A@?0A@EA@Enemy@@8				; Enemy::`RTTI Base Class Descriptor at (0,-1,0,64)'
PUBLIC	??_R4EnemySoldier@@6B@				; EnemySoldier::`RTTI Complete Object Locator'
PUBLIC	??_R0?AVEnemySoldier@@@8			; EnemySoldier `RTTI Type Descriptor'
PUBLIC	??_R3EnemySoldier@@8				; EnemySoldier::`RTTI Class Hierarchy Descriptor'
PUBLIC	??_R2EnemySoldier@@8				; EnemySoldier::`RTTI Base Class Array'
PUBLIC	??_R1A@?0A@EA@EnemySoldier@@8			; EnemySoldier::`RTTI Base Class Descriptor at (0,-1,0,64)'
PUBLIC	__real@00000000
PUBLIC	__real@41200000
PUBLIC	__real@42c80000
EXTRN	__purecall:PROC
EXTRN	??2@YAPAXI@Z:PROC				; operator new
EXTRN	??3@YAXPAX@Z:PROC				; operator delete
EXTRN	_atexit:PROC
EXTRN	__imp___invalid_parameter:PROC
EXTRN	__imp_??0_Lockit@std@@QAE@H@Z:PROC
EXTRN	__imp_??1_Lockit@std@@QAE@XZ:PROC
EXTRN	__imp__rand:PROC
EXTRN	__imp__srand:PROC
EXTRN	__imp__system:PROC
EXTRN	_memcpy:PROC
EXTRN	_memset:PROC
EXTRN	_strlen:PROC
EXTRN	__imp__memmove:PROC
EXTRN	__imp_?uncaught_exception@std@@YA_NXZ:PROC
EXTRN	__imp___CrtDbgReportW:PROC
EXTRN	__imp_?_Debug_message@std@@YAXPB_W0I@Z:PROC
EXTRN	__imp_??0_Container_base12@std@@QAE@XZ:PROC
EXTRN	__imp_??1_Container_base12@std@@QAE@XZ:PROC
EXTRN	__imp_?_Getpfirst@_Container_base12@std@@QBEPAPAU_Iterator_base12@2@XZ:PROC
EXTRN	__imp_?_Orphan_all@_Container_base12@std@@QAEXXZ:PROC
EXTRN	__imp_?_Swap_all@_Container_base12@std@@QAEXAAU12@@Z:PROC
EXTRN	__imp_?_Xbad_alloc@std@@YAXXZ:PROC
EXTRN	__imp_?_Xlength_error@std@@YAXPBD@Z:PROC
EXTRN	__imp_?_Xout_of_range@std@@YAXPBD@Z:PROC
EXTRN	__imp_??0id@locale@std@@QAE@I@Z:PROC
EXTRN	??_Eerror_category@std@@UAEPAXI@Z:PROC		; std::error_category::`vector deleting destructor'
EXTRN	__imp_?_Syserror_map@std@@YAPBDH@Z:PROC
EXTRN	__imp_?_Winerror_map@std@@YAPBDH@Z:PROC
EXTRN	??_E_Generic_error_category@std@@UAEPAXI@Z:PROC	; std::_Generic_error_category::`vector deleting destructor'
EXTRN	??_E_Iostream_error_category@std@@UAEPAXI@Z:PROC ; std::_Iostream_error_category::`vector deleting destructor'
EXTRN	??_E_System_error_category@std@@UAEPAXI@Z:PROC	; std::_System_error_category::`vector deleting destructor'
EXTRN	__imp_?good@ios_base@std@@QBE_NXZ:PROC
EXTRN	__imp_?flags@ios_base@std@@QBEHXZ:PROC
EXTRN	__imp_?width@ios_base@std@@QBE_JXZ:PROC
EXTRN	__imp_?width@ios_base@std@@QAE_J_J@Z:PROC
EXTRN	__imp_?sputc@?$basic_streambuf@DU?$char_traits@D@std@@@std@@QAEHD@Z:PROC
EXTRN	__imp_?sputn@?$basic_streambuf@DU?$char_traits@D@std@@@std@@QAE_JPBD_J@Z:PROC
EXTRN	__imp_?setstate@?$basic_ios@DU?$char_traits@D@std@@@std@@QAEXH_N@Z:PROC
EXTRN	__imp_?tie@?$basic_ios@DU?$char_traits@D@std@@@std@@QBEPAV?$basic_ostream@DU?$char_traits@D@std@@@2@XZ:PROC
EXTRN	__imp_?rdbuf@?$basic_ios@DU?$char_traits@D@std@@@std@@QBEPAV?$basic_streambuf@DU?$char_traits@D@std@@@2@XZ:PROC
EXTRN	__imp_?fill@?$basic_ios@DU?$char_traits@D@std@@@std@@QBEDXZ:PROC
EXTRN	__imp_?_Osfx@?$basic_ostream@DU?$char_traits@D@std@@@std@@QAEXXZ:PROC
EXTRN	__imp_??6?$basic_ostream@DU?$char_traits@D@std@@@std@@QAEAAV01@P6AAAV01@AAV01@@Z@Z:PROC
EXTRN	__imp_??6?$basic_ostream@DU?$char_traits@D@std@@@std@@QAEAAV01@H@Z:PROC
EXTRN	__imp_??6?$basic_ostream@DU?$char_traits@D@std@@@std@@QAEAAV01@M@Z:PROC
EXTRN	__imp_?flush@?$basic_ostream@DU?$char_traits@D@std@@@std@@QAEAAV12@XZ:PROC
EXTRN	__imp_?endl@std@@YAAAV?$basic_ostream@DU?$char_traits@D@std@@@1@AAV21@@Z:PROC
EXTRN	__imp_??5?$basic_istream@DU?$char_traits@D@std@@@std@@QAEAAV01@AA_N@Z:PROC
EXTRN	__imp__getch:PROC
EXTRN	__imp__kbhit:PROC
EXTRN	__imp___time64:PROC
EXTRN	__imp__xtime_get:PROC
EXTRN	__imp___Xtime_diff_to_millis2:PROC
EXTRN	__imp___Xtime_get_ticks:PROC
EXTRN	__imp_?wait@Concurrency@@YAXI@Z:PROC
EXTRN	__imp_?_Id@_CurrentScheduler@details@Concurrency@@SAIXZ:PROC
EXTRN	__imp___Thrd_sleep:PROC
EXTRN	__imp__pthread_create:PROC
EXTRN	__imp__pthread_mutex_lock:PROC
EXTRN	__imp__pthread_mutex_unlock:PROC
EXTRN	??_EOnScreen@@UAEPAXI@Z:PROC			; OnScreen::`vector deleting destructor'
EXTRN	??_ELivingEntity@@UAEPAXI@Z:PROC		; LivingEntity::`vector deleting destructor'
EXTRN	??_EBullet@@UAEPAXI@Z:PROC			; Bullet::`vector deleting destructor'
EXTRN	??_EFightingEntity@@UAEPAXI@Z:PROC		; FightingEntity::`vector deleting destructor'
EXTRN	??_EPlayer@@UAEPAXI@Z:PROC			; Player::`vector deleting destructor'
EXTRN	??_EEnemy@@UAEPAXI@Z:PROC			; Enemy::`vector deleting destructor'
EXTRN	??_EEnemySoldier@@UAEPAXI@Z:PROC		; EnemySoldier::`vector deleting destructor'
EXTRN	@_RTC_CheckStackVars@8:PROC
EXTRN	@__security_check_cookie@4:PROC
EXTRN	__CxxThrowException@8:PROC
EXTRN	__RTC_CheckEsp:PROC
EXTRN	__RTC_InitBase:PROC
EXTRN	__RTC_Shutdown:PROC
EXTRN	___CxxFrameHandler3:PROC
EXTRN	__alldiv:PROC
EXTRN	__allmul:PROC
EXTRN	??_7type_info@@6B@:QWORD			; type_info::`vftable'
EXTRN	__imp_?cin@std@@3V?$basic_istream@DU?$char_traits@D@std@@@1@A:BYTE
EXTRN	__imp_?cout@std@@3V?$basic_ostream@DU?$char_traits@D@std@@@1@A:BYTE
EXTRN	___security_cookie:DWORD
EXTRN	__fltused:DWORD
_BSS	SEGMENT
_piecewise_construct DB 01H DUP (?)
	ALIGN	4

_allocator_arg DB 01H DUP (?)
_BSS	ENDS
;	COMDAT ?_Generic_object@?$_Error_objects@H@std@@2V_Generic_error_category@2@A
_BSS	SEGMENT
?_Generic_object@?$_Error_objects@H@std@@2V_Generic_error_category@2@A DD 01H DUP (?) ; std::_Error_objects<int>::_Generic_object
_BSS	ENDS
;	COMDAT ?_Iostream_object@?$_Error_objects@H@std@@2V_Iostream_error_category@2@A
_BSS	SEGMENT
?_Iostream_object@?$_Error_objects@H@std@@2V_Iostream_error_category@2@A DD 01H DUP (?) ; std::_Error_objects<int>::_Iostream_object
_BSS	ENDS
;	COMDAT ?_System_object@?$_Error_objects@H@std@@2V_System_error_category@2@A
_BSS	SEGMENT
?_System_object@?$_Error_objects@H@std@@2V_System_error_category@2@A DD 01H DUP (?) ; std::_Error_objects<int>::_System_object
_BSS	ENDS
;	COMDAT ?id@?$num_put@DV?$back_insert_iterator@V?$basic_string@DU?$char_traits@D@std@@V?$allocator@D@2@@std@@@std@@@std@@2V0locale@2@A
_BSS	SEGMENT
?id@?$num_put@DV?$back_insert_iterator@V?$basic_string@DU?$char_traits@D@std@@V?$allocator@D@2@@std@@@std@@@std@@2V0locale@2@A DD 01H DUP (?) ; std::num_put<char,std::back_insert_iterator<std::basic_string<char,std::char_traits<char>,std::allocator<char> > > >::id
_BSS	ENDS
;	COMDAT ?id@?$num_put@_WV?$back_insert_iterator@V?$basic_string@_WU?$char_traits@_W@std@@V?$allocator@_W@2@@std@@@std@@@std@@2V0locale@2@A
_BSS	SEGMENT
?id@?$num_put@_WV?$back_insert_iterator@V?$basic_string@_WU?$char_traits@_W@std@@V?$allocator@_W@2@@std@@@std@@@std@@2V0locale@2@A DD 01H DUP (?) ; std::num_put<wchar_t,std::back_insert_iterator<std::basic_string<wchar_t,std::char_traits<wchar_t>,std::allocator<wchar_t> > > >::id
_BSS	ENDS
_BSS	SEGMENT
	ALIGN	4

_ignore	DB	01H DUP (?)
	ALIGN	4

__Tuple_alloc DB 01H DUP (?)
	ALIGN	4

?visibleItems@OnScreen@@2V?$vector@PAVOnScreen@@V?$allocator@PAVOnScreen@@@std@@@std@@A DB 010H DUP (?) ; OnScreen::visibleItems
?livingThings@LivingEntity@@2V?$vector@PAVLivingEntity@@V?$allocator@PAVLivingEntity@@@std@@@std@@A DB 010H DUP (?) ; LivingEntity::livingThings
?bullets@Bullet@@1V?$vector@PAVBullet@@V?$allocator@PAVBullet@@@std@@@std@@A DB 010H DUP (?) ; Bullet::bullets
?enemies@Enemy@@1V?$vector@PAVEnemy@@V?$allocator@PAVEnemy@@@std@@@std@@A DB 010H DUP (?) ; Enemy::enemies
_BSS	ENDS
CRT$XCU	SEGMENT
_piecewise_construct$initializer$ DD FLAT:??__Epiecewise_construct@std@@YAXXZ
CRT$XCU	ENDS
;	COMDAT __real@42c80000
CONST	SEGMENT
__real@42c80000 DD 042c80000r			; 100
CONST	ENDS
;	COMDAT __real@41200000
CONST	SEGMENT
__real@41200000 DD 041200000r			; 10
CONST	ENDS
;	COMDAT __real@00000000
CONST	SEGMENT
__real@00000000 DD 000000000r			; 0
CONST	ENDS
;	COMDAT rtc$TMZ
rtc$TMZ	SEGMENT
__RTC_Shutdown.rtc$TMZ DD FLAT:__RTC_Shutdown
rtc$TMZ	ENDS
;	COMDAT rtc$IMZ
rtc$IMZ	SEGMENT
__RTC_InitBase.rtc$IMZ DD FLAT:__RTC_InitBase
rtc$IMZ	ENDS
;	COMDAT ??_R1A@?0A@EA@EnemySoldier@@8
rdata$r	SEGMENT
??_R1A@?0A@EA@EnemySoldier@@8 DD FLAT:??_R0?AVEnemySoldier@@@8 ; EnemySoldier::`RTTI Base Class Descriptor at (0,-1,0,64)'
	DD	04H
	DD	00H
	DD	0ffffffffH
	DD	00H
	DD	040H
	DD	FLAT:??_R3EnemySoldier@@8
rdata$r	ENDS
;	COMDAT ??_R2EnemySoldier@@8
rdata$r	SEGMENT
??_R2EnemySoldier@@8 DD FLAT:??_R1A@?0A@EA@EnemySoldier@@8 ; EnemySoldier::`RTTI Base Class Array'
	DD	FLAT:??_R1A@?0A@EA@Enemy@@8
	DD	FLAT:??_R1A@?0A@EA@FightingEntity@@8
	DD	FLAT:??_R1A@?0A@EA@LivingEntity@@8
	DD	FLAT:??_R1A@?0A@EA@OnScreen@@8
rdata$r	ENDS
;	COMDAT ??_R3EnemySoldier@@8
rdata$r	SEGMENT
??_R3EnemySoldier@@8 DD 00H				; EnemySoldier::`RTTI Class Hierarchy Descriptor'
	DD	00H
	DD	05H
	DD	FLAT:??_R2EnemySoldier@@8
rdata$r	ENDS
;	COMDAT ??_R0?AVEnemySoldier@@@8
_DATA	SEGMENT
??_R0?AVEnemySoldier@@@8 DD FLAT:??_7type_info@@6B@	; EnemySoldier `RTTI Type Descriptor'
	DD	00H
	DB	'.?AVEnemySoldier@@', 00H
_DATA	ENDS
;	COMDAT ??_R4EnemySoldier@@6B@
rdata$r	SEGMENT
??_R4EnemySoldier@@6B@ DD 00H				; EnemySoldier::`RTTI Complete Object Locator'
	DD	00H
	DD	00H
	DD	FLAT:??_R0?AVEnemySoldier@@@8
	DD	FLAT:??_R3EnemySoldier@@8
rdata$r	ENDS
;	COMDAT ??_R1A@?0A@EA@Enemy@@8
rdata$r	SEGMENT
??_R1A@?0A@EA@Enemy@@8 DD FLAT:??_R0?AVEnemy@@@8	; Enemy::`RTTI Base Class Descriptor at (0,-1,0,64)'
	DD	03H
	DD	00H
	DD	0ffffffffH
	DD	00H
	DD	040H
	DD	FLAT:??_R3Enemy@@8
rdata$r	ENDS
;	COMDAT ??_R2Enemy@@8
rdata$r	SEGMENT
??_R2Enemy@@8 DD FLAT:??_R1A@?0A@EA@Enemy@@8		; Enemy::`RTTI Base Class Array'
	DD	FLAT:??_R1A@?0A@EA@FightingEntity@@8
	DD	FLAT:??_R1A@?0A@EA@LivingEntity@@8
	DD	FLAT:??_R1A@?0A@EA@OnScreen@@8
rdata$r	ENDS
;	COMDAT ??_R3Enemy@@8
rdata$r	SEGMENT
??_R3Enemy@@8 DD 00H					; Enemy::`RTTI Class Hierarchy Descriptor'
	DD	00H
	DD	04H
	DD	FLAT:??_R2Enemy@@8
rdata$r	ENDS
;	COMDAT ??_R0?AVEnemy@@@8
_DATA	SEGMENT
??_R0?AVEnemy@@@8 DD FLAT:??_7type_info@@6B@		; Enemy `RTTI Type Descriptor'
	DD	00H
	DB	'.?AVEnemy@@', 00H
_DATA	ENDS
;	COMDAT ??_R4Enemy@@6B@
rdata$r	SEGMENT
??_R4Enemy@@6B@ DD 00H					; Enemy::`RTTI Complete Object Locator'
	DD	00H
	DD	00H
	DD	FLAT:??_R0?AVEnemy@@@8
	DD	FLAT:??_R3Enemy@@8
rdata$r	ENDS
;	COMDAT ??_R4FightingEntity@@6B@
rdata$r	SEGMENT
??_R4FightingEntity@@6B@ DD 00H				; FightingEntity::`RTTI Complete Object Locator'
	DD	00H
	DD	00H
	DD	FLAT:??_R0?AVFightingEntity@@@8
	DD	FLAT:??_R3FightingEntity@@8
rdata$r	ENDS
;	COMDAT ??_R4LivingEntity@@6B@
rdata$r	SEGMENT
??_R4LivingEntity@@6B@ DD 00H				; LivingEntity::`RTTI Complete Object Locator'
	DD	00H
	DD	00H
	DD	FLAT:??_R0?AVLivingEntity@@@8
	DD	FLAT:??_R3LivingEntity@@8
rdata$r	ENDS
;	COMDAT ??_R4OnScreen@@6B@
rdata$r	SEGMENT
??_R4OnScreen@@6B@ DD 00H				; OnScreen::`RTTI Complete Object Locator'
	DD	00H
	DD	00H
	DD	FLAT:??_R0?AVOnScreen@@@8
	DD	FLAT:??_R3OnScreen@@8
rdata$r	ENDS
;	COMDAT ??_R1A@?0A@EA@Bullet@@8
rdata$r	SEGMENT
??_R1A@?0A@EA@Bullet@@8 DD FLAT:??_R0?AVBullet@@@8	; Bullet::`RTTI Base Class Descriptor at (0,-1,0,64)'
	DD	01H
	DD	00H
	DD	0ffffffffH
	DD	00H
	DD	040H
	DD	FLAT:??_R3Bullet@@8
rdata$r	ENDS
;	COMDAT ??_R2Bullet@@8
rdata$r	SEGMENT
??_R2Bullet@@8 DD FLAT:??_R1A@?0A@EA@Bullet@@8		; Bullet::`RTTI Base Class Array'
	DD	FLAT:??_R1A@?0A@EA@OnScreen@@8
rdata$r	ENDS
;	COMDAT ??_R3Bullet@@8
rdata$r	SEGMENT
??_R3Bullet@@8 DD 00H					; Bullet::`RTTI Class Hierarchy Descriptor'
	DD	00H
	DD	02H
	DD	FLAT:??_R2Bullet@@8
rdata$r	ENDS
;	COMDAT ??_R0?AVBullet@@@8
_DATA	SEGMENT
??_R0?AVBullet@@@8 DD FLAT:??_7type_info@@6B@		; Bullet `RTTI Type Descriptor'
	DD	00H
	DB	'.?AVBullet@@', 00H
_DATA	ENDS
;	COMDAT ??_R4Bullet@@6B@
rdata$r	SEGMENT
??_R4Bullet@@6B@ DD 00H					; Bullet::`RTTI Complete Object Locator'
	DD	00H
	DD	00H
	DD	FLAT:??_R0?AVBullet@@@8
	DD	FLAT:??_R3Bullet@@8
rdata$r	ENDS
;	COMDAT ??_R2OnScreen@@8
rdata$r	SEGMENT
??_R2OnScreen@@8 DD FLAT:??_R1A@?0A@EA@OnScreen@@8	; OnScreen::`RTTI Base Class Array'
rdata$r	ENDS
;	COMDAT ??_R3OnScreen@@8
rdata$r	SEGMENT
??_R3OnScreen@@8 DD 00H					; OnScreen::`RTTI Class Hierarchy Descriptor'
	DD	00H
	DD	01H
	DD	FLAT:??_R2OnScreen@@8
rdata$r	ENDS
;	COMDAT ??_R0?AVOnScreen@@@8
_DATA	SEGMENT
??_R0?AVOnScreen@@@8 DD FLAT:??_7type_info@@6B@		; OnScreen `RTTI Type Descriptor'
	DD	00H
	DB	'.?AVOnScreen@@', 00H
_DATA	ENDS
;	COMDAT ??_R1A@?0A@EA@OnScreen@@8
rdata$r	SEGMENT
??_R1A@?0A@EA@OnScreen@@8 DD FLAT:??_R0?AVOnScreen@@@8	; OnScreen::`RTTI Base Class Descriptor at (0,-1,0,64)'
	DD	00H
	DD	00H
	DD	0ffffffffH
	DD	00H
	DD	040H
	DD	FLAT:??_R3OnScreen@@8
rdata$r	ENDS
;	COMDAT ??_R2LivingEntity@@8
rdata$r	SEGMENT
??_R2LivingEntity@@8 DD FLAT:??_R1A@?0A@EA@LivingEntity@@8 ; LivingEntity::`RTTI Base Class Array'
	DD	FLAT:??_R1A@?0A@EA@OnScreen@@8
rdata$r	ENDS
;	COMDAT ??_R3LivingEntity@@8
rdata$r	SEGMENT
??_R3LivingEntity@@8 DD 00H				; LivingEntity::`RTTI Class Hierarchy Descriptor'
	DD	00H
	DD	02H
	DD	FLAT:??_R2LivingEntity@@8
rdata$r	ENDS
;	COMDAT ??_R0?AVLivingEntity@@@8
_DATA	SEGMENT
??_R0?AVLivingEntity@@@8 DD FLAT:??_7type_info@@6B@	; LivingEntity `RTTI Type Descriptor'
	DD	00H
	DB	'.?AVLivingEntity@@', 00H
_DATA	ENDS
;	COMDAT ??_R1A@?0A@EA@LivingEntity@@8
rdata$r	SEGMENT
??_R1A@?0A@EA@LivingEntity@@8 DD FLAT:??_R0?AVLivingEntity@@@8 ; LivingEntity::`RTTI Base Class Descriptor at (0,-1,0,64)'
	DD	01H
	DD	00H
	DD	0ffffffffH
	DD	00H
	DD	040H
	DD	FLAT:??_R3LivingEntity@@8
rdata$r	ENDS
;	COMDAT ??_R2FightingEntity@@8
rdata$r	SEGMENT
??_R2FightingEntity@@8 DD FLAT:??_R1A@?0A@EA@FightingEntity@@8 ; FightingEntity::`RTTI Base Class Array'
	DD	FLAT:??_R1A@?0A@EA@LivingEntity@@8
	DD	FLAT:??_R1A@?0A@EA@OnScreen@@8
rdata$r	ENDS
;	COMDAT ??_R3FightingEntity@@8
rdata$r	SEGMENT
??_R3FightingEntity@@8 DD 00H				; FightingEntity::`RTTI Class Hierarchy Descriptor'
	DD	00H
	DD	03H
	DD	FLAT:??_R2FightingEntity@@8
rdata$r	ENDS
;	COMDAT ??_R0?AVFightingEntity@@@8
_DATA	SEGMENT
??_R0?AVFightingEntity@@@8 DD FLAT:??_7type_info@@6B@	; FightingEntity `RTTI Type Descriptor'
	DD	00H
	DB	'.?AVFightingEntity@@', 00H
_DATA	ENDS
;	COMDAT ??_R1A@?0A@EA@FightingEntity@@8
rdata$r	SEGMENT
??_R1A@?0A@EA@FightingEntity@@8 DD FLAT:??_R0?AVFightingEntity@@@8 ; FightingEntity::`RTTI Base Class Descriptor at (0,-1,0,64)'
	DD	02H
	DD	00H
	DD	0ffffffffH
	DD	00H
	DD	040H
	DD	FLAT:??_R3FightingEntity@@8
rdata$r	ENDS
;	COMDAT ??_R1A@?0A@EA@Player@@8
rdata$r	SEGMENT
??_R1A@?0A@EA@Player@@8 DD FLAT:??_R0?AVPlayer@@@8	; Player::`RTTI Base Class Descriptor at (0,-1,0,64)'
	DD	03H
	DD	00H
	DD	0ffffffffH
	DD	00H
	DD	040H
	DD	FLAT:??_R3Player@@8
rdata$r	ENDS
;	COMDAT ??_R2Player@@8
rdata$r	SEGMENT
??_R2Player@@8 DD FLAT:??_R1A@?0A@EA@Player@@8		; Player::`RTTI Base Class Array'
	DD	FLAT:??_R1A@?0A@EA@FightingEntity@@8
	DD	FLAT:??_R1A@?0A@EA@LivingEntity@@8
	DD	FLAT:??_R1A@?0A@EA@OnScreen@@8
rdata$r	ENDS
;	COMDAT ??_R3Player@@8
rdata$r	SEGMENT
??_R3Player@@8 DD 00H					; Player::`RTTI Class Hierarchy Descriptor'
	DD	00H
	DD	04H
	DD	FLAT:??_R2Player@@8
rdata$r	ENDS
;	COMDAT ??_R0?AVPlayer@@@8
_DATA	SEGMENT
??_R0?AVPlayer@@@8 DD FLAT:??_7type_info@@6B@		; Player `RTTI Type Descriptor'
	DD	00H
	DB	'.?AVPlayer@@', 00H
_DATA	ENDS
;	COMDAT ??_R4Player@@6B@
rdata$r	SEGMENT
??_R4Player@@6B@ DD 00H					; Player::`RTTI Complete Object Locator'
	DD	00H
	DD	00H
	DD	FLAT:??_R0?AVPlayer@@@8
	DD	FLAT:??_R3Player@@8
rdata$r	ENDS
;	COMDAT ??_R1A@?0A@EA@_System_error_category@std@@8
rdata$r	SEGMENT
??_R1A@?0A@EA@_System_error_category@std@@8 DD FLAT:??_R0?AV_System_error_category@std@@@8 ; std::_System_error_category::`RTTI Base Class Descriptor at (0,-1,0,64)'
	DD	02H
	DD	00H
	DD	0ffffffffH
	DD	00H
	DD	040H
	DD	FLAT:??_R3_System_error_category@std@@8
rdata$r	ENDS
;	COMDAT ??_R2_System_error_category@std@@8
rdata$r	SEGMENT
??_R2_System_error_category@std@@8 DD FLAT:??_R1A@?0A@EA@_System_error_category@std@@8 ; std::_System_error_category::`RTTI Base Class Array'
	DD	FLAT:??_R1A@?0A@EA@_Generic_error_category@std@@8
	DD	FLAT:??_R1A@?0A@EA@error_category@std@@8
rdata$r	ENDS
;	COMDAT ??_R3_System_error_category@std@@8
rdata$r	SEGMENT
??_R3_System_error_category@std@@8 DD 00H		; std::_System_error_category::`RTTI Class Hierarchy Descriptor'
	DD	00H
	DD	03H
	DD	FLAT:??_R2_System_error_category@std@@8
rdata$r	ENDS
;	COMDAT ??_R0?AV_System_error_category@std@@@8
_DATA	SEGMENT
??_R0?AV_System_error_category@std@@@8 DD FLAT:??_7type_info@@6B@ ; std::_System_error_category `RTTI Type Descriptor'
	DD	00H
	DB	'.?AV_System_error_category@std@@', 00H
_DATA	ENDS
;	COMDAT ??_R4_System_error_category@std@@6B@
rdata$r	SEGMENT
??_R4_System_error_category@std@@6B@ DD 00H		; std::_System_error_category::`RTTI Complete Object Locator'
	DD	00H
	DD	00H
	DD	FLAT:??_R0?AV_System_error_category@std@@@8
	DD	FLAT:??_R3_System_error_category@std@@8
rdata$r	ENDS
;	COMDAT ??_R1A@?0A@EA@_Iostream_error_category@std@@8
rdata$r	SEGMENT
??_R1A@?0A@EA@_Iostream_error_category@std@@8 DD FLAT:??_R0?AV_Iostream_error_category@std@@@8 ; std::_Iostream_error_category::`RTTI Base Class Descriptor at (0,-1,0,64)'
	DD	02H
	DD	00H
	DD	0ffffffffH
	DD	00H
	DD	040H
	DD	FLAT:??_R3_Iostream_error_category@std@@8
rdata$r	ENDS
;	COMDAT ??_R2_Iostream_error_category@std@@8
rdata$r	SEGMENT
??_R2_Iostream_error_category@std@@8 DD FLAT:??_R1A@?0A@EA@_Iostream_error_category@std@@8 ; std::_Iostream_error_category::`RTTI Base Class Array'
	DD	FLAT:??_R1A@?0A@EA@_Generic_error_category@std@@8
	DD	FLAT:??_R1A@?0A@EA@error_category@std@@8
rdata$r	ENDS
;	COMDAT ??_R3_Iostream_error_category@std@@8
rdata$r	SEGMENT
??_R3_Iostream_error_category@std@@8 DD 00H		; std::_Iostream_error_category::`RTTI Class Hierarchy Descriptor'
	DD	00H
	DD	03H
	DD	FLAT:??_R2_Iostream_error_category@std@@8
rdata$r	ENDS
;	COMDAT ??_R0?AV_Iostream_error_category@std@@@8
_DATA	SEGMENT
??_R0?AV_Iostream_error_category@std@@@8 DD FLAT:??_7type_info@@6B@ ; std::_Iostream_error_category `RTTI Type Descriptor'
	DD	00H
	DB	'.?AV_Iostream_error_category@std@@', 00H
_DATA	ENDS
;	COMDAT ??_R4_Iostream_error_category@std@@6B@
rdata$r	SEGMENT
??_R4_Iostream_error_category@std@@6B@ DD 00H		; std::_Iostream_error_category::`RTTI Complete Object Locator'
	DD	00H
	DD	00H
	DD	FLAT:??_R0?AV_Iostream_error_category@std@@@8
	DD	FLAT:??_R3_Iostream_error_category@std@@8
rdata$r	ENDS
;	COMDAT ??_R1A@?0A@EA@_Generic_error_category@std@@8
rdata$r	SEGMENT
??_R1A@?0A@EA@_Generic_error_category@std@@8 DD FLAT:??_R0?AV_Generic_error_category@std@@@8 ; std::_Generic_error_category::`RTTI Base Class Descriptor at (0,-1,0,64)'
	DD	01H
	DD	00H
	DD	0ffffffffH
	DD	00H
	DD	040H
	DD	FLAT:??_R3_Generic_error_category@std@@8
rdata$r	ENDS
;	COMDAT ??_R2_Generic_error_category@std@@8
rdata$r	SEGMENT
??_R2_Generic_error_category@std@@8 DD FLAT:??_R1A@?0A@EA@_Generic_error_category@std@@8 ; std::_Generic_error_category::`RTTI Base Class Array'
	DD	FLAT:??_R1A@?0A@EA@error_category@std@@8
rdata$r	ENDS
;	COMDAT ??_R3_Generic_error_category@std@@8
rdata$r	SEGMENT
??_R3_Generic_error_category@std@@8 DD 00H		; std::_Generic_error_category::`RTTI Class Hierarchy Descriptor'
	DD	00H
	DD	02H
	DD	FLAT:??_R2_Generic_error_category@std@@8
rdata$r	ENDS
;	COMDAT ??_R0?AV_Generic_error_category@std@@@8
_DATA	SEGMENT
??_R0?AV_Generic_error_category@std@@@8 DD FLAT:??_7type_info@@6B@ ; std::_Generic_error_category `RTTI Type Descriptor'
	DD	00H
	DB	'.?AV_Generic_error_category@std@@', 00H
_DATA	ENDS
;	COMDAT ??_R4_Generic_error_category@std@@6B@
rdata$r	SEGMENT
??_R4_Generic_error_category@std@@6B@ DD 00H		; std::_Generic_error_category::`RTTI Complete Object Locator'
	DD	00H
	DD	00H
	DD	FLAT:??_R0?AV_Generic_error_category@std@@@8
	DD	FLAT:??_R3_Generic_error_category@std@@8
rdata$r	ENDS
;	COMDAT ??_R1A@?0A@EA@error_category@std@@8
rdata$r	SEGMENT
??_R1A@?0A@EA@error_category@std@@8 DD FLAT:??_R0?AVerror_category@std@@@8 ; std::error_category::`RTTI Base Class Descriptor at (0,-1,0,64)'
	DD	00H
	DD	00H
	DD	0ffffffffH
	DD	00H
	DD	040H
	DD	FLAT:??_R3error_category@std@@8
rdata$r	ENDS
;	COMDAT ??_R2error_category@std@@8
rdata$r	SEGMENT
??_R2error_category@std@@8 DD FLAT:??_R1A@?0A@EA@error_category@std@@8 ; std::error_category::`RTTI Base Class Array'
rdata$r	ENDS
;	COMDAT ??_R3error_category@std@@8
rdata$r	SEGMENT
??_R3error_category@std@@8 DD 00H			; std::error_category::`RTTI Class Hierarchy Descriptor'
	DD	00H
	DD	01H
	DD	FLAT:??_R2error_category@std@@8
rdata$r	ENDS
;	COMDAT ??_R0?AVerror_category@std@@@8
_DATA	SEGMENT
??_R0?AVerror_category@std@@@8 DD FLAT:??_7type_info@@6B@ ; std::error_category `RTTI Type Descriptor'
	DD	00H
	DB	'.?AVerror_category@std@@', 00H
_DATA	ENDS
;	COMDAT ??_R4error_category@std@@6B@
rdata$r	SEGMENT
??_R4error_category@std@@6B@ DD 00H			; std::error_category::`RTTI Complete Object Locator'
	DD	00H
	DD	00H
	DD	FLAT:??_R0?AVerror_category@std@@@8
	DD	FLAT:??_R3error_category@std@@8
rdata$r	ENDS
;	COMDAT ??_C@_1IO@NPCEFBKE@?$AAe?$AA?3?$AA?2?$AAp?$AAr?$AAo?$AAg?$AAr?$AAa?$AAm?$AA?5?$AAf?$AAi?$AAl?$AAe?$AAs?$AA?5?$AA?$CI?$AAx?$AA8?$AA6?$AA?$CJ?$AA?2?$AAm?$AAi?$AAc?$AAr?$AAo?$AAs?$AAo?$AAf?$AAt@
CONST	SEGMENT
??_C@_1IO@NPCEFBKE@?$AAe?$AA?3?$AA?2?$AAp?$AAr?$AAo?$AAg?$AAr?$AAa?$AAm?$AA?5?$AAf?$AAi?$AAl?$AAe?$AAs?$AA?5?$AA?$CI?$AAx?$AA8?$AA6?$AA?$CJ?$AA?2?$AAm?$AAi?$AAc?$AAr?$AAo?$AAs?$AAo?$AAf?$AAt@ DB 'e'
	DB	00H, ':', 00H, '\', 00H, 'p', 00H, 'r', 00H, 'o', 00H, 'g', 00H
	DB	'r', 00H, 'a', 00H, 'm', 00H, ' ', 00H, 'f', 00H, 'i', 00H, 'l'
	DB	00H, 'e', 00H, 's', 00H, ' ', 00H, '(', 00H, 'x', 00H, '8', 00H
	DB	'6', 00H, ')', 00H, '\', 00H, 'm', 00H, 'i', 00H, 'c', 00H, 'r'
	DB	00H, 'o', 00H, 's', 00H, 'o', 00H, 'f', 00H, 't', 00H, ' ', 00H
	DB	'v', 00H, 'i', 00H, 's', 00H, 'u', 00H, 'a', 00H, 'l', 00H, ' '
	DB	00H, 's', 00H, 't', 00H, 'u', 00H, 'd', 00H, 'i', 00H, 'o', 00H
	DB	' ', 00H, '1', 00H, '1', 00H, '.', 00H, '0', 00H, '\', 00H, 'v'
	DB	00H, 'c', 00H, '\', 00H, 'i', 00H, 'n', 00H, 'c', 00H, 'l', 00H
	DB	'u', 00H, 'd', 00H, 'e', 00H, '\', 00H, 'x', 00H, 'm', 00H, 'e'
	DB	00H, 'm', 00H, 'o', 00H, 'r', 00H, 'y', 00H, 00H, 00H ; `string'
CONST	ENDS
;	COMDAT ??_C@_1CO@DGLIKNHI@?$AAi?$AAn?$AAv?$AAa?$AAl?$AAi?$AAd?$AA?5?$AAi?$AAt?$AAe?$AAr?$AAa?$AAt?$AAo?$AAr?$AA?5?$AAr?$AAa?$AAn?$AAg?$AAe?$AA?$AA@
CONST	SEGMENT
??_C@_1CO@DGLIKNHI@?$AAi?$AAn?$AAv?$AAa?$AAl?$AAi?$AAd?$AA?5?$AAi?$AAt?$AAe?$AAr?$AAa?$AAt?$AAo?$AAr?$AA?5?$AAr?$AAa?$AAn?$AAg?$AAe?$AA?$AA@ DB 'i'
	DB	00H, 'n', 00H, 'v', 00H, 'a', 00H, 'l', 00H, 'i', 00H, 'd', 00H
	DB	' ', 00H, 'i', 00H, 't', 00H, 'e', 00H, 'r', 00H, 'a', 00H, 't'
	DB	00H, 'o', 00H, 'r', 00H, ' ', 00H, 'r', 00H, 'a', 00H, 'n', 00H
	DB	'g', 00H, 'e', 00H, 00H, 00H			; `string'
CONST	ENDS
;	COMDAT ??_C@_1CK@EOPGIILJ@?$AAi?$AAn?$AAv?$AAa?$AAl?$AAi?$AAd?$AA?5?$AAn?$AAu?$AAl?$AAl?$AA?5?$AAp?$AAo?$AAi?$AAn?$AAt?$AAe?$AAr?$AA?$AA@
CONST	SEGMENT
??_C@_1CK@EOPGIILJ@?$AAi?$AAn?$AAv?$AAa?$AAl?$AAi?$AAd?$AA?5?$AAn?$AAu?$AAl?$AAl?$AA?5?$AAp?$AAo?$AAi?$AAn?$AAt?$AAe?$AAr?$AA?$AA@ DB 'i'
	DB	00H, 'n', 00H, 'v', 00H, 'a', 00H, 'l', 00H, 'i', 00H, 'd', 00H
	DB	' ', 00H, 'n', 00H, 'u', 00H, 'l', 00H, 'l', 00H, ' ', 00H, 'p'
	DB	00H, 'o', 00H, 'i', 00H, 'n', 00H, 't', 00H, 'e', 00H, 'r', 00H
	DB	00H, 00H					; `string'
CONST	ENDS
;	COMDAT ??_C@_0BA@JFNIOLAK@string?5too?5long?$AA@
CONST	SEGMENT
??_C@_0BA@JFNIOLAK@string?5too?5long?$AA@ DB 'string too long', 00H ; `string'
CONST	ENDS
;	COMDAT ??_C@_1NC@HPHJKDBI@?$AAs?$AAt?$AAd?$AA?3?$AA?3?$AA_?$AAV?$AAe?$AAc?$AAt?$AAo?$AAr?$AA_?$AAc?$AAo?$AAn?$AAs?$AAt?$AA_?$AAi?$AAt?$AAe?$AAr?$AAa?$AAt?$AAo?$AAr?$AA?$DM?$AAc?$AAl?$AAa?$AAs@
CONST	SEGMENT
??_C@_1NC@HPHJKDBI@?$AAs?$AAt?$AAd?$AA?3?$AA?3?$AA_?$AAV?$AAe?$AAc?$AAt?$AAo?$AAr?$AA_?$AAc?$AAo?$AAn?$AAs?$AAt?$AA_?$AAi?$AAt?$AAe?$AAr?$AAa?$AAt?$AAo?$AAr?$AA?$DM?$AAc?$AAl?$AAa?$AAs@ DB 's'
	DB	00H, 't', 00H, 'd', 00H, ':', 00H, ':', 00H, '_', 00H, 'V', 00H
	DB	'e', 00H, 'c', 00H, 't', 00H, 'o', 00H, 'r', 00H, '_', 00H, 'c'
	DB	00H, 'o', 00H, 'n', 00H, 's', 00H, 't', 00H, '_', 00H, 'i', 00H
	DB	't', 00H, 'e', 00H, 'r', 00H, 'a', 00H, 't', 00H, 'o', 00H, 'r'
	DB	00H, '<', 00H, 'c', 00H, 'l', 00H, 'a', 00H, 's', 00H, 's', 00H
	DB	' ', 00H, 's', 00H, 't', 00H, 'd', 00H, ':', 00H, ':', 00H, '_'
	DB	00H, 'V', 00H, 'e', 00H, 'c', 00H, 't', 00H, 'o', 00H, 'r', 00H
	DB	'_', 00H, 'v', 00H, 'a', 00H, 'l', 00H, '<', 00H, 's', 00H, 't'
	DB	00H, 'r', 00H, 'u', 00H, 'c', 00H, 't', 00H, ' ', 00H, 's', 00H
	DB	't', 00H, 'd', 00H, ':', 00H, ':', 00H, '_', 00H, 'S', 00H, 'i'
	DB	00H, 'm', 00H, 'p', 00H, 'l', 00H, 'e', 00H, '_', 00H, 't', 00H
	DB	'y', 00H, 'p', 00H, 'e', 00H, 's', 00H, '<', 00H, 'c', 00H, 'l'
	DB	00H, 'a', 00H, 's', 00H, 's', 00H, ' ', 00H, 'E', 00H, 'n', 00H
	DB	'e', 00H, 'm', 00H, 'y', 00H, ' ', 00H, '*', 00H, '>', 00H, ' '
	DB	00H, '>', 00H, ' ', 00H, '>', 00H, ':', 00H, ':', 00H, '_', 00H
	DB	'C', 00H, 'o', 00H, 'm', 00H, 'p', 00H, 'a', 00H, 't', 00H, 00H
	DB	00H						; `string'
CONST	ENDS
;	COMDAT ??_C@_1NK@FOJADKHE@?$AAs?$AAt?$AAd?$AA?3?$AA?3?$AA_?$AAV?$AAe?$AAc?$AAt?$AAo?$AAr?$AA_?$AAc?$AAo?$AAn?$AAs?$AAt?$AA_?$AAi?$AAt?$AAe?$AAr?$AAa?$AAt?$AAo?$AAr?$AA?$DM?$AAc?$AAl?$AAa?$AAs@
CONST	SEGMENT
??_C@_1NK@FOJADKHE@?$AAs?$AAt?$AAd?$AA?3?$AA?3?$AA_?$AAV?$AAe?$AAc?$AAt?$AAo?$AAr?$AA_?$AAc?$AAo?$AAn?$AAs?$AAt?$AA_?$AAi?$AAt?$AAe?$AAr?$AAa?$AAt?$AAo?$AAr?$AA?$DM?$AAc?$AAl?$AAa?$AAs@ DB 's'
	DB	00H, 't', 00H, 'd', 00H, ':', 00H, ':', 00H, '_', 00H, 'V', 00H
	DB	'e', 00H, 'c', 00H, 't', 00H, 'o', 00H, 'r', 00H, '_', 00H, 'c'
	DB	00H, 'o', 00H, 'n', 00H, 's', 00H, 't', 00H, '_', 00H, 'i', 00H
	DB	't', 00H, 'e', 00H, 'r', 00H, 'a', 00H, 't', 00H, 'o', 00H, 'r'
	DB	00H, '<', 00H, 'c', 00H, 'l', 00H, 'a', 00H, 's', 00H, 's', 00H
	DB	' ', 00H, 's', 00H, 't', 00H, 'd', 00H, ':', 00H, ':', 00H, '_'
	DB	00H, 'V', 00H, 'e', 00H, 'c', 00H, 't', 00H, 'o', 00H, 'r', 00H
	DB	'_', 00H, 'v', 00H, 'a', 00H, 'l', 00H, '<', 00H, 's', 00H, 't'
	DB	00H, 'r', 00H, 'u', 00H, 'c', 00H, 't', 00H, ' ', 00H, 's', 00H
	DB	't', 00H, 'd', 00H, ':', 00H, ':', 00H, '_', 00H, 'S', 00H, 'i'
	DB	00H, 'm', 00H, 'p', 00H, 'l', 00H, 'e', 00H, '_', 00H, 't', 00H
	DB	'y', 00H, 'p', 00H, 'e', 00H, 's', 00H, '<', 00H, 'c', 00H, 'l'
	DB	00H, 'a', 00H, 's', 00H, 's', 00H, ' ', 00H, 'E', 00H, 'n', 00H
	DB	'e', 00H, 'm', 00H, 'y', 00H, ' ', 00H, '*', 00H, '>', 00H, ' '
	DB	00H, '>', 00H, ' ', 00H, '>', 00H, ':', 00H, ':', 00H, 'o', 00H
	DB	'p', 00H, 'e', 00H, 'r', 00H, 'a', 00H, 't', 00H, 'o', 00H, 'r'
	DB	00H, ' ', 00H, '+', 00H, '+', 00H, 00H, 00H	; `string'
CONST	ENDS
;	COMDAT ??_C@_1NE@PDAEDKHB@?$AAs?$AAt?$AAd?$AA?3?$AA?3?$AA_?$AAV?$AAe?$AAc?$AAt?$AAo?$AAr?$AA_?$AAc?$AAo?$AAn?$AAs?$AAt?$AA_?$AAi?$AAt?$AAe?$AAr?$AAa?$AAt?$AAo?$AAr?$AA?$DM?$AAc?$AAl?$AAa?$AAs@
CONST	SEGMENT
??_C@_1NE@PDAEDKHB@?$AAs?$AAt?$AAd?$AA?3?$AA?3?$AA_?$AAV?$AAe?$AAc?$AAt?$AAo?$AAr?$AA_?$AAc?$AAo?$AAn?$AAs?$AAt?$AA_?$AAi?$AAt?$AAe?$AAr?$AAa?$AAt?$AAo?$AAr?$AA?$DM?$AAc?$AAl?$AAa?$AAs@ DB 's'
	DB	00H, 't', 00H, 'd', 00H, ':', 00H, ':', 00H, '_', 00H, 'V', 00H
	DB	'e', 00H, 'c', 00H, 't', 00H, 'o', 00H, 'r', 00H, '_', 00H, 'c'
	DB	00H, 'o', 00H, 'n', 00H, 's', 00H, 't', 00H, '_', 00H, 'i', 00H
	DB	't', 00H, 'e', 00H, 'r', 00H, 'a', 00H, 't', 00H, 'o', 00H, 'r'
	DB	00H, '<', 00H, 'c', 00H, 'l', 00H, 'a', 00H, 's', 00H, 's', 00H
	DB	' ', 00H, 's', 00H, 't', 00H, 'd', 00H, ':', 00H, ':', 00H, '_'
	DB	00H, 'V', 00H, 'e', 00H, 'c', 00H, 't', 00H, 'o', 00H, 'r', 00H
	DB	'_', 00H, 'v', 00H, 'a', 00H, 'l', 00H, '<', 00H, 's', 00H, 't'
	DB	00H, 'r', 00H, 'u', 00H, 'c', 00H, 't', 00H, ' ', 00H, 's', 00H
	DB	't', 00H, 'd', 00H, ':', 00H, ':', 00H, '_', 00H, 'S', 00H, 'i'
	DB	00H, 'm', 00H, 'p', 00H, 'l', 00H, 'e', 00H, '_', 00H, 't', 00H
	DB	'y', 00H, 'p', 00H, 'e', 00H, 's', 00H, '<', 00H, 'c', 00H, 'l'
	DB	00H, 'a', 00H, 's', 00H, 's', 00H, ' ', 00H, 'B', 00H, 'u', 00H
	DB	'l', 00H, 'l', 00H, 'e', 00H, 't', 00H, ' ', 00H, '*', 00H, '>'
	DB	00H, ' ', 00H, '>', 00H, ' ', 00H, '>', 00H, ':', 00H, ':', 00H
	DB	'_', 00H, 'C', 00H, 'o', 00H, 'm', 00H, 'p', 00H, 'a', 00H, 't'
	DB	00H, 00H, 00H				; `string'
CONST	ENDS
;	COMDAT ??_C@_1NM@CIMOPBIH@?$AAs?$AAt?$AAd?$AA?3?$AA?3?$AA_?$AAV?$AAe?$AAc?$AAt?$AAo?$AAr?$AA_?$AAc?$AAo?$AAn?$AAs?$AAt?$AA_?$AAi?$AAt?$AAe?$AAr?$AAa?$AAt?$AAo?$AAr?$AA?$DM?$AAc?$AAl?$AAa?$AAs@
CONST	SEGMENT
??_C@_1NM@CIMOPBIH@?$AAs?$AAt?$AAd?$AA?3?$AA?3?$AA_?$AAV?$AAe?$AAc?$AAt?$AAo?$AAr?$AA_?$AAc?$AAo?$AAn?$AAs?$AAt?$AA_?$AAi?$AAt?$AAe?$AAr?$AAa?$AAt?$AAo?$AAr?$AA?$DM?$AAc?$AAl?$AAa?$AAs@ DB 's'
	DB	00H, 't', 00H, 'd', 00H, ':', 00H, ':', 00H, '_', 00H, 'V', 00H
	DB	'e', 00H, 'c', 00H, 't', 00H, 'o', 00H, 'r', 00H, '_', 00H, 'c'
	DB	00H, 'o', 00H, 'n', 00H, 's', 00H, 't', 00H, '_', 00H, 'i', 00H
	DB	't', 00H, 'e', 00H, 'r', 00H, 'a', 00H, 't', 00H, 'o', 00H, 'r'
	DB	00H, '<', 00H, 'c', 00H, 'l', 00H, 'a', 00H, 's', 00H, 's', 00H
	DB	' ', 00H, 's', 00H, 't', 00H, 'd', 00H, ':', 00H, ':', 00H, '_'
	DB	00H, 'V', 00H, 'e', 00H, 'c', 00H, 't', 00H, 'o', 00H, 'r', 00H
	DB	'_', 00H, 'v', 00H, 'a', 00H, 'l', 00H, '<', 00H, 's', 00H, 't'
	DB	00H, 'r', 00H, 'u', 00H, 'c', 00H, 't', 00H, ' ', 00H, 's', 00H
	DB	't', 00H, 'd', 00H, ':', 00H, ':', 00H, '_', 00H, 'S', 00H, 'i'
	DB	00H, 'm', 00H, 'p', 00H, 'l', 00H, 'e', 00H, '_', 00H, 't', 00H
	DB	'y', 00H, 'p', 00H, 'e', 00H, 's', 00H, '<', 00H, 'c', 00H, 'l'
	DB	00H, 'a', 00H, 's', 00H, 's', 00H, ' ', 00H, 'B', 00H, 'u', 00H
	DB	'l', 00H, 'l', 00H, 'e', 00H, 't', 00H, ' ', 00H, '*', 00H, '>'
	DB	00H, ' ', 00H, '>', 00H, ' ', 00H, '>', 00H, ':', 00H, ':', 00H
	DB	'o', 00H, 'p', 00H, 'e', 00H, 'r', 00H, 'a', 00H, 't', 00H, 'o'
	DB	00H, 'r', 00H, ' ', 00H, '+', 00H, '+', 00H, 00H, 00H ; `string'
CONST	ENDS
;	COMDAT ??_C@_1OA@GBDFFJPG@?$AAs?$AAt?$AAd?$AA?3?$AA?3?$AA_?$AAV?$AAe?$AAc?$AAt?$AAo?$AAr?$AA_?$AAc?$AAo?$AAn?$AAs?$AAt?$AA_?$AAi?$AAt?$AAe?$AAr?$AAa?$AAt?$AAo?$AAr?$AA?$DM?$AAc?$AAl?$AAa?$AAs@
CONST	SEGMENT
??_C@_1OA@GBDFFJPG@?$AAs?$AAt?$AAd?$AA?3?$AA?3?$AA_?$AAV?$AAe?$AAc?$AAt?$AAo?$AAr?$AA_?$AAc?$AAo?$AAn?$AAs?$AAt?$AA_?$AAi?$AAt?$AAe?$AAr?$AAa?$AAt?$AAo?$AAr?$AA?$DM?$AAc?$AAl?$AAa?$AAs@ DB 's'
	DB	00H, 't', 00H, 'd', 00H, ':', 00H, ':', 00H, '_', 00H, 'V', 00H
	DB	'e', 00H, 'c', 00H, 't', 00H, 'o', 00H, 'r', 00H, '_', 00H, 'c'
	DB	00H, 'o', 00H, 'n', 00H, 's', 00H, 't', 00H, '_', 00H, 'i', 00H
	DB	't', 00H, 'e', 00H, 'r', 00H, 'a', 00H, 't', 00H, 'o', 00H, 'r'
	DB	00H, '<', 00H, 'c', 00H, 'l', 00H, 'a', 00H, 's', 00H, 's', 00H
	DB	' ', 00H, 's', 00H, 't', 00H, 'd', 00H, ':', 00H, ':', 00H, '_'
	DB	00H, 'V', 00H, 'e', 00H, 'c', 00H, 't', 00H, 'o', 00H, 'r', 00H
	DB	'_', 00H, 'v', 00H, 'a', 00H, 'l', 00H, '<', 00H, 's', 00H, 't'
	DB	00H, 'r', 00H, 'u', 00H, 'c', 00H, 't', 00H, ' ', 00H, 's', 00H
	DB	't', 00H, 'd', 00H, ':', 00H, ':', 00H, '_', 00H, 'S', 00H, 'i'
	DB	00H, 'm', 00H, 'p', 00H, 'l', 00H, 'e', 00H, '_', 00H, 't', 00H
	DB	'y', 00H, 'p', 00H, 'e', 00H, 's', 00H, '<', 00H, 'c', 00H, 'l'
	DB	00H, 'a', 00H, 's', 00H, 's', 00H, ' ', 00H, 'L', 00H, 'i', 00H
	DB	'v', 00H, 'i', 00H, 'n', 00H, 'g', 00H, 'E', 00H, 'n', 00H, 't'
	DB	00H, 'i', 00H, 't', 00H, 'y', 00H, ' ', 00H, '*', 00H, '>', 00H
	DB	' ', 00H, '>', 00H, ' ', 00H, '>', 00H, ':', 00H, ':', 00H, '_'
	DB	00H, 'C', 00H, 'o', 00H, 'm', 00H, 'p', 00H, 'a', 00H, 't', 00H
	DB	00H, 00H					; `string'
CONST	ENDS
;	COMDAT ??_C@_1OI@KPIOILEE@?$AAs?$AAt?$AAd?$AA?3?$AA?3?$AA_?$AAV?$AAe?$AAc?$AAt?$AAo?$AAr?$AA_?$AAc?$AAo?$AAn?$AAs?$AAt?$AA_?$AAi?$AAt?$AAe?$AAr?$AAa?$AAt?$AAo?$AAr?$AA?$DM?$AAc?$AAl?$AAa?$AAs@
CONST	SEGMENT
??_C@_1OI@KPIOILEE@?$AAs?$AAt?$AAd?$AA?3?$AA?3?$AA_?$AAV?$AAe?$AAc?$AAt?$AAo?$AAr?$AA_?$AAc?$AAo?$AAn?$AAs?$AAt?$AA_?$AAi?$AAt?$AAe?$AAr?$AAa?$AAt?$AAo?$AAr?$AA?$DM?$AAc?$AAl?$AAa?$AAs@ DB 's'
	DB	00H, 't', 00H, 'd', 00H, ':', 00H, ':', 00H, '_', 00H, 'V', 00H
	DB	'e', 00H, 'c', 00H, 't', 00H, 'o', 00H, 'r', 00H, '_', 00H, 'c'
	DB	00H, 'o', 00H, 'n', 00H, 's', 00H, 't', 00H, '_', 00H, 'i', 00H
	DB	't', 00H, 'e', 00H, 'r', 00H, 'a', 00H, 't', 00H, 'o', 00H, 'r'
	DB	00H, '<', 00H, 'c', 00H, 'l', 00H, 'a', 00H, 's', 00H, 's', 00H
	DB	' ', 00H, 's', 00H, 't', 00H, 'd', 00H, ':', 00H, ':', 00H, '_'
	DB	00H, 'V', 00H, 'e', 00H, 'c', 00H, 't', 00H, 'o', 00H, 'r', 00H
	DB	'_', 00H, 'v', 00H, 'a', 00H, 'l', 00H, '<', 00H, 's', 00H, 't'
	DB	00H, 'r', 00H, 'u', 00H, 'c', 00H, 't', 00H, ' ', 00H, 's', 00H
	DB	't', 00H, 'd', 00H, ':', 00H, ':', 00H, '_', 00H, 'S', 00H, 'i'
	DB	00H, 'm', 00H, 'p', 00H, 'l', 00H, 'e', 00H, '_', 00H, 't', 00H
	DB	'y', 00H, 'p', 00H, 'e', 00H, 's', 00H, '<', 00H, 'c', 00H, 'l'
	DB	00H, 'a', 00H, 's', 00H, 's', 00H, ' ', 00H, 'L', 00H, 'i', 00H
	DB	'v', 00H, 'i', 00H, 'n', 00H, 'g', 00H, 'E', 00H, 'n', 00H, 't'
	DB	00H, 'i', 00H, 't', 00H, 'y', 00H, ' ', 00H, '*', 00H, '>', 00H
	DB	' ', 00H, '>', 00H, ' ', 00H, '>', 00H, ':', 00H, ':', 00H, 'o'
	DB	00H, 'p', 00H, 'e', 00H, 'r', 00H, 'a', 00H, 't', 00H, 'o', 00H
	DB	'r', 00H, ' ', 00H, '+', 00H, '+', 00H, 00H, 00H ; `string'
CONST	ENDS
;	COMDAT ??_C@_1CG@JNLFBNGN@?$AA?$CC?$AAi?$AAn?$AAv?$AAa?$AAl?$AAi?$AAd?$AA?5?$AAa?$AAr?$AAg?$AAu?$AAm?$AAe?$AAn?$AAt?$AA?$CC?$AA?$AA@
CONST	SEGMENT
??_C@_1CG@JNLFBNGN@?$AA?$CC?$AAi?$AAn?$AAv?$AAa?$AAl?$AAi?$AAd?$AA?5?$AAa?$AAr?$AAg?$AAu?$AAm?$AAe?$AAn?$AAt?$AA?$CC?$AA?$AA@ DB '"'
	DB	00H, 'i', 00H, 'n', 00H, 'v', 00H, 'a', 00H, 'l', 00H, 'i', 00H
	DB	'd', 00H, ' ', 00H, 'a', 00H, 'r', 00H, 'g', 00H, 'u', 00H, 'm'
	DB	00H, 'e', 00H, 'n', 00H, 't', 00H, '"', 00H, 00H, 00H ; `string'
CONST	ENDS
;	COMDAT ??_C@_1NI@HEJHPDDM@?$AAs?$AAt?$AAd?$AA?3?$AA?3?$AA_?$AAV?$AAe?$AAc?$AAt?$AAo?$AAr?$AA_?$AAc?$AAo?$AAn?$AAs?$AAt?$AA_?$AAi?$AAt?$AAe?$AAr?$AAa?$AAt?$AAo?$AAr?$AA?$DM?$AAc?$AAl?$AAa?$AAs@
CONST	SEGMENT
??_C@_1NI@HEJHPDDM@?$AAs?$AAt?$AAd?$AA?3?$AA?3?$AA_?$AAV?$AAe?$AAc?$AAt?$AAo?$AAr?$AA_?$AAc?$AAo?$AAn?$AAs?$AAt?$AA_?$AAi?$AAt?$AAe?$AAr?$AAa?$AAt?$AAo?$AAr?$AA?$DM?$AAc?$AAl?$AAa?$AAs@ DB 's'
	DB	00H, 't', 00H, 'd', 00H, ':', 00H, ':', 00H, '_', 00H, 'V', 00H
	DB	'e', 00H, 'c', 00H, 't', 00H, 'o', 00H, 'r', 00H, '_', 00H, 'c'
	DB	00H, 'o', 00H, 'n', 00H, 's', 00H, 't', 00H, '_', 00H, 'i', 00H
	DB	't', 00H, 'e', 00H, 'r', 00H, 'a', 00H, 't', 00H, 'o', 00H, 'r'
	DB	00H, '<', 00H, 'c', 00H, 'l', 00H, 'a', 00H, 's', 00H, 's', 00H
	DB	' ', 00H, 's', 00H, 't', 00H, 'd', 00H, ':', 00H, ':', 00H, '_'
	DB	00H, 'V', 00H, 'e', 00H, 'c', 00H, 't', 00H, 'o', 00H, 'r', 00H
	DB	'_', 00H, 'v', 00H, 'a', 00H, 'l', 00H, '<', 00H, 's', 00H, 't'
	DB	00H, 'r', 00H, 'u', 00H, 'c', 00H, 't', 00H, ' ', 00H, 's', 00H
	DB	't', 00H, 'd', 00H, ':', 00H, ':', 00H, '_', 00H, 'S', 00H, 'i'
	DB	00H, 'm', 00H, 'p', 00H, 'l', 00H, 'e', 00H, '_', 00H, 't', 00H
	DB	'y', 00H, 'p', 00H, 'e', 00H, 's', 00H, '<', 00H, 'c', 00H, 'l'
	DB	00H, 'a', 00H, 's', 00H, 's', 00H, ' ', 00H, 'O', 00H, 'n', 00H
	DB	'S', 00H, 'c', 00H, 'r', 00H, 'e', 00H, 'e', 00H, 'n', 00H, ' '
	DB	00H, '*', 00H, '>', 00H, ' ', 00H, '>', 00H, ' ', 00H, '>', 00H
	DB	':', 00H, ':', 00H, '_', 00H, 'C', 00H, 'o', 00H, 'm', 00H, 'p'
	DB	00H, 'a', 00H, 't', 00H, 00H, 00H		; `string'
CONST	ENDS
;	COMDAT ??_C@_1FO@GJIHNDLM@?$AA?$CC?$AAS?$AAt?$AAa?$AAn?$AAd?$AAa?$AAr?$AAd?$AA?5?$AAC?$AA?$CL?$AA?$CL?$AA?5?$AAL?$AAi?$AAb?$AAr?$AAa?$AAr?$AAi?$AAe?$AAs?$AA?5?$AAI?$AAn?$AAv?$AAa?$AAl?$AAi?$AAd?$AA?5@
CONST	SEGMENT
??_C@_1FO@GJIHNDLM@?$AA?$CC?$AAS?$AAt?$AAa?$AAn?$AAd?$AAa?$AAr?$AAd?$AA?5?$AAC?$AA?$CL?$AA?$CL?$AA?5?$AAL?$AAi?$AAb?$AAr?$AAa?$AAr?$AAi?$AAe?$AAs?$AA?5?$AAI?$AAn?$AAv?$AAa?$AAl?$AAi?$AAd?$AA?5@ DB '"'
	DB	00H, 'S', 00H, 't', 00H, 'a', 00H, 'n', 00H, 'd', 00H, 'a', 00H
	DB	'r', 00H, 'd', 00H, ' ', 00H, 'C', 00H, '+', 00H, '+', 00H, ' '
	DB	00H, 'L', 00H, 'i', 00H, 'b', 00H, 'r', 00H, 'a', 00H, 'r', 00H
	DB	'i', 00H, 'e', 00H, 's', 00H, ' ', 00H, 'I', 00H, 'n', 00H, 'v'
	DB	00H, 'a', 00H, 'l', 00H, 'i', 00H, 'd', 00H, ' ', 00H, 'A', 00H
	DB	'r', 00H, 'g', 00H, 'u', 00H, 'm', 00H, 'e', 00H, 'n', 00H, 't'
	DB	00H, '"', 00H, ' ', 00H, '&', 00H, '&', 00H, ' ', 00H, '0', 00H
	DB	00H, 00H					; `string'
CONST	ENDS
;	COMDAT ??_C@_0CI@FNPHFCCM@Standard?5C?$CL?$CL?5Libraries?5Invalid?5A@
CONST	SEGMENT
??_C@_0CI@FNPHFCCM@Standard?5C?$CL?$CL?5Libraries?5Invalid?5A@ DB 'Standa'
	DB	'rd C++ Libraries Invalid Argument', 00H	; `string'
CONST	ENDS
;	COMDAT ??_C@_1DM@HINDPMBP@?$AAv?$AAe?$AAc?$AAt?$AAo?$AAr?$AA?5?$AAi?$AAt?$AAe?$AAr?$AAa?$AAt?$AAo?$AAr?$AAs?$AA?5?$AAi?$AAn?$AAc?$AAo?$AAm?$AAp?$AAa?$AAt?$AAi?$AAb?$AAl?$AAe?$AA?$AA@
CONST	SEGMENT
??_C@_1DM@HINDPMBP@?$AAv?$AAe?$AAc?$AAt?$AAo?$AAr?$AA?5?$AAi?$AAt?$AAe?$AAr?$AAa?$AAt?$AAo?$AAr?$AAs?$AA?5?$AAi?$AAn?$AAc?$AAo?$AAm?$AAp?$AAa?$AAt?$AAi?$AAb?$AAl?$AAe?$AA?$AA@ DB 'v'
	DB	00H, 'e', 00H, 'c', 00H, 't', 00H, 'o', 00H, 'r', 00H, ' ', 00H
	DB	'i', 00H, 't', 00H, 'e', 00H, 'r', 00H, 'a', 00H, 't', 00H, 'o'
	DB	00H, 'r', 00H, 's', 00H, ' ', 00H, 'i', 00H, 'n', 00H, 'c', 00H
	DB	'o', 00H, 'm', 00H, 'p', 00H, 'a', 00H, 't', 00H, 'i', 00H, 'b'
	DB	00H, 'l', 00H, 'e', 00H, 00H, 00H		; `string'
CONST	ENDS
;	COMDAT ??_C@_1OA@FLOHPEIM@?$AAs?$AAt?$AAd?$AA?3?$AA?3?$AA_?$AAV?$AAe?$AAc?$AAt?$AAo?$AAr?$AA_?$AAc?$AAo?$AAn?$AAs?$AAt?$AA_?$AAi?$AAt?$AAe?$AAr?$AAa?$AAt?$AAo?$AAr?$AA?$DM?$AAc?$AAl?$AAa?$AAs@
CONST	SEGMENT
??_C@_1OA@FLOHPEIM@?$AAs?$AAt?$AAd?$AA?3?$AA?3?$AA_?$AAV?$AAe?$AAc?$AAt?$AAo?$AAr?$AA_?$AAc?$AAo?$AAn?$AAs?$AAt?$AA_?$AAi?$AAt?$AAe?$AAr?$AAa?$AAt?$AAo?$AAr?$AA?$DM?$AAc?$AAl?$AAa?$AAs@ DB 's'
	DB	00H, 't', 00H, 'd', 00H, ':', 00H, ':', 00H, '_', 00H, 'V', 00H
	DB	'e', 00H, 'c', 00H, 't', 00H, 'o', 00H, 'r', 00H, '_', 00H, 'c'
	DB	00H, 'o', 00H, 'n', 00H, 's', 00H, 't', 00H, '_', 00H, 'i', 00H
	DB	't', 00H, 'e', 00H, 'r', 00H, 'a', 00H, 't', 00H, 'o', 00H, 'r'
	DB	00H, '<', 00H, 'c', 00H, 'l', 00H, 'a', 00H, 's', 00H, 's', 00H
	DB	' ', 00H, 's', 00H, 't', 00H, 'd', 00H, ':', 00H, ':', 00H, '_'
	DB	00H, 'V', 00H, 'e', 00H, 'c', 00H, 't', 00H, 'o', 00H, 'r', 00H
	DB	'_', 00H, 'v', 00H, 'a', 00H, 'l', 00H, '<', 00H, 's', 00H, 't'
	DB	00H, 'r', 00H, 'u', 00H, 'c', 00H, 't', 00H, ' ', 00H, 's', 00H
	DB	't', 00H, 'd', 00H, ':', 00H, ':', 00H, '_', 00H, 'S', 00H, 'i'
	DB	00H, 'm', 00H, 'p', 00H, 'l', 00H, 'e', 00H, '_', 00H, 't', 00H
	DB	'y', 00H, 'p', 00H, 'e', 00H, 's', 00H, '<', 00H, 'c', 00H, 'l'
	DB	00H, 'a', 00H, 's', 00H, 's', 00H, ' ', 00H, 'O', 00H, 'n', 00H
	DB	'S', 00H, 'c', 00H, 'r', 00H, 'e', 00H, 'e', 00H, 'n', 00H, ' '
	DB	00H, '*', 00H, '>', 00H, ' ', 00H, '>', 00H, ' ', 00H, '>', 00H
	DB	':', 00H, ':', 00H, 'o', 00H, 'p', 00H, 'e', 00H, 'r', 00H, 'a'
	DB	00H, 't', 00H, 'o', 00H, 'r', 00H, ' ', 00H, '+', 00H, '+', 00H
	DB	00H, 00H					; `string'
CONST	ENDS
;	COMDAT ??_C@_1EE@EJDKCLKB@?$AAv?$AAe?$AAc?$AAt?$AAo?$AAr?$AA?5?$AAi?$AAt?$AAe?$AAr?$AAa?$AAt?$AAo?$AAr?$AA?5?$AAn?$AAo?$AAt?$AA?5?$AAi?$AAn?$AAc?$AAr?$AAe?$AAm?$AAe?$AAn?$AAt?$AAa?$AAb?$AAl@
CONST	SEGMENT
??_C@_1EE@EJDKCLKB@?$AAv?$AAe?$AAc?$AAt?$AAo?$AAr?$AA?5?$AAi?$AAt?$AAe?$AAr?$AAa?$AAt?$AAo?$AAr?$AA?5?$AAn?$AAo?$AAt?$AA?5?$AAi?$AAn?$AAc?$AAr?$AAe?$AAm?$AAe?$AAn?$AAt?$AAa?$AAb?$AAl@ DB 'v'
	DB	00H, 'e', 00H, 'c', 00H, 't', 00H, 'o', 00H, 'r', 00H, ' ', 00H
	DB	'i', 00H, 't', 00H, 'e', 00H, 'r', 00H, 'a', 00H, 't', 00H, 'o'
	DB	00H, 'r', 00H, ' ', 00H, 'n', 00H, 'o', 00H, 't', 00H, ' ', 00H
	DB	'i', 00H, 'n', 00H, 'c', 00H, 'r', 00H, 'e', 00H, 'm', 00H, 'e'
	DB	00H, 'n', 00H, 't', 00H, 'a', 00H, 'b', 00H, 'l', 00H, 'e', 00H
	DB	00H, 00H					; `string'
CONST	ENDS
;	COMDAT ??_C@_0BD@OLBABOEK@vector?$DMT?$DO?5too?5long?$AA@
CONST	SEGMENT
??_C@_0BD@OLBABOEK@vector?$DMT?$DO?5too?5long?$AA@ DB 'vector<T> too long'
	DB	00H						; `string'
CONST	ENDS
;	COMDAT ??_C@_0BI@CFPLBAOH@invalid?5string?5position?$AA@
CONST	SEGMENT
??_C@_0BI@CFPLBAOH@invalid?5string?5position?$AA@ DB 'invalid string posi'
	DB	'tion', 00H					; `string'
CONST	ENDS
;	COMDAT ??_C@_1NI@JDFLGOO@?$AAs?$AAt?$AAd?$AA?3?$AA?3?$AA_?$AAV?$AAe?$AAc?$AAt?$AAo?$AAr?$AA_?$AAc?$AAo?$AAn?$AAs?$AAt?$AA_?$AAi?$AAt?$AAe?$AAr?$AAa?$AAt?$AAo?$AAr?$AA?$DM?$AAc?$AAl?$AAa?$AAs@
CONST	SEGMENT
??_C@_1NI@JDFLGOO@?$AAs?$AAt?$AAd?$AA?3?$AA?3?$AA_?$AAV?$AAe?$AAc?$AAt?$AAo?$AAr?$AA_?$AAc?$AAo?$AAn?$AAs?$AAt?$AA_?$AAi?$AAt?$AAe?$AAr?$AAa?$AAt?$AAo?$AAr?$AA?$DM?$AAc?$AAl?$AAa?$AAs@ DB 's'
	DB	00H, 't', 00H, 'd', 00H, ':', 00H, ':', 00H, '_', 00H, 'V', 00H
	DB	'e', 00H, 'c', 00H, 't', 00H, 'o', 00H, 'r', 00H, '_', 00H, 'c'
	DB	00H, 'o', 00H, 'n', 00H, 's', 00H, 't', 00H, '_', 00H, 'i', 00H
	DB	't', 00H, 'e', 00H, 'r', 00H, 'a', 00H, 't', 00H, 'o', 00H, 'r'
	DB	00H, '<', 00H, 'c', 00H, 'l', 00H, 'a', 00H, 's', 00H, 's', 00H
	DB	' ', 00H, 's', 00H, 't', 00H, 'd', 00H, ':', 00H, ':', 00H, '_'
	DB	00H, 'V', 00H, 'e', 00H, 'c', 00H, 't', 00H, 'o', 00H, 'r', 00H
	DB	'_', 00H, 'v', 00H, 'a', 00H, 'l', 00H, '<', 00H, 's', 00H, 't'
	DB	00H, 'r', 00H, 'u', 00H, 'c', 00H, 't', 00H, ' ', 00H, 's', 00H
	DB	't', 00H, 'd', 00H, ':', 00H, ':', 00H, '_', 00H, 'S', 00H, 'i'
	DB	00H, 'm', 00H, 'p', 00H, 'l', 00H, 'e', 00H, '_', 00H, 't', 00H
	DB	'y', 00H, 'p', 00H, 'e', 00H, 's', 00H, '<', 00H, 'c', 00H, 'l'
	DB	00H, 'a', 00H, 's', 00H, 's', 00H, ' ', 00H, 'E', 00H, 'n', 00H
	DB	'e', 00H, 'm', 00H, 'y', 00H, ' ', 00H, '*', 00H, '>', 00H, ' '
	DB	00H, '>', 00H, ' ', 00H, '>', 00H, ':', 00H, ':', 00H, 'o', 00H
	DB	'p', 00H, 'e', 00H, 'r', 00H, 'a', 00H, 't', 00H, 'o', 00H, 'r'
	DB	00H, ' ', 00H, '*', 00H, 00H, 00H		; `string'
CONST	ENDS
;	COMDAT ??_C@_1NK@ILKCDHLI@?$AAs?$AAt?$AAd?$AA?3?$AA?3?$AA_?$AAV?$AAe?$AAc?$AAt?$AAo?$AAr?$AA_?$AAc?$AAo?$AAn?$AAs?$AAt?$AA_?$AAi?$AAt?$AAe?$AAr?$AAa?$AAt?$AAo?$AAr?$AA?$DM?$AAc?$AAl?$AAa?$AAs@
CONST	SEGMENT
??_C@_1NK@ILKCDHLI@?$AAs?$AAt?$AAd?$AA?3?$AA?3?$AA_?$AAV?$AAe?$AAc?$AAt?$AAo?$AAr?$AA_?$AAc?$AAo?$AAn?$AAs?$AAt?$AA_?$AAi?$AAt?$AAe?$AAr?$AAa?$AAt?$AAo?$AAr?$AA?$DM?$AAc?$AAl?$AAa?$AAs@ DB 's'
	DB	00H, 't', 00H, 'd', 00H, ':', 00H, ':', 00H, '_', 00H, 'V', 00H
	DB	'e', 00H, 'c', 00H, 't', 00H, 'o', 00H, 'r', 00H, '_', 00H, 'c'
	DB	00H, 'o', 00H, 'n', 00H, 's', 00H, 't', 00H, '_', 00H, 'i', 00H
	DB	't', 00H, 'e', 00H, 'r', 00H, 'a', 00H, 't', 00H, 'o', 00H, 'r'
	DB	00H, '<', 00H, 'c', 00H, 'l', 00H, 'a', 00H, 's', 00H, 's', 00H
	DB	' ', 00H, 's', 00H, 't', 00H, 'd', 00H, ':', 00H, ':', 00H, '_'
	DB	00H, 'V', 00H, 'e', 00H, 'c', 00H, 't', 00H, 'o', 00H, 'r', 00H
	DB	'_', 00H, 'v', 00H, 'a', 00H, 'l', 00H, '<', 00H, 's', 00H, 't'
	DB	00H, 'r', 00H, 'u', 00H, 'c', 00H, 't', 00H, ' ', 00H, 's', 00H
	DB	't', 00H, 'd', 00H, ':', 00H, ':', 00H, '_', 00H, 'S', 00H, 'i'
	DB	00H, 'm', 00H, 'p', 00H, 'l', 00H, 'e', 00H, '_', 00H, 't', 00H
	DB	'y', 00H, 'p', 00H, 'e', 00H, 's', 00H, '<', 00H, 'c', 00H, 'l'
	DB	00H, 'a', 00H, 's', 00H, 's', 00H, ' ', 00H, 'B', 00H, 'u', 00H
	DB	'l', 00H, 'l', 00H, 'e', 00H, 't', 00H, ' ', 00H, '*', 00H, '>'
	DB	00H, ' ', 00H, '>', 00H, ' ', 00H, '>', 00H, ':', 00H, ':', 00H
	DB	'o', 00H, 'p', 00H, 'e', 00H, 'r', 00H, 'a', 00H, 't', 00H, 'o'
	DB	00H, 'r', 00H, ' ', 00H, '*', 00H, 00H, 00H	; `string'
CONST	ENDS
;	COMDAT ??_C@_1OG@OAIFONBP@?$AAs?$AAt?$AAd?$AA?3?$AA?3?$AA_?$AAV?$AAe?$AAc?$AAt?$AAo?$AAr?$AA_?$AAc?$AAo?$AAn?$AAs?$AAt?$AA_?$AAi?$AAt?$AAe?$AAr?$AAa?$AAt?$AAo?$AAr?$AA?$DM?$AAc?$AAl?$AAa?$AAs@
CONST	SEGMENT
??_C@_1OG@OAIFONBP@?$AAs?$AAt?$AAd?$AA?3?$AA?3?$AA_?$AAV?$AAe?$AAc?$AAt?$AAo?$AAr?$AA_?$AAc?$AAo?$AAn?$AAs?$AAt?$AA_?$AAi?$AAt?$AAe?$AAr?$AAa?$AAt?$AAo?$AAr?$AA?$DM?$AAc?$AAl?$AAa?$AAs@ DB 's'
	DB	00H, 't', 00H, 'd', 00H, ':', 00H, ':', 00H, '_', 00H, 'V', 00H
	DB	'e', 00H, 'c', 00H, 't', 00H, 'o', 00H, 'r', 00H, '_', 00H, 'c'
	DB	00H, 'o', 00H, 'n', 00H, 's', 00H, 't', 00H, '_', 00H, 'i', 00H
	DB	't', 00H, 'e', 00H, 'r', 00H, 'a', 00H, 't', 00H, 'o', 00H, 'r'
	DB	00H, '<', 00H, 'c', 00H, 'l', 00H, 'a', 00H, 's', 00H, 's', 00H
	DB	' ', 00H, 's', 00H, 't', 00H, 'd', 00H, ':', 00H, ':', 00H, '_'
	DB	00H, 'V', 00H, 'e', 00H, 'c', 00H, 't', 00H, 'o', 00H, 'r', 00H
	DB	'_', 00H, 'v', 00H, 'a', 00H, 'l', 00H, '<', 00H, 's', 00H, 't'
	DB	00H, 'r', 00H, 'u', 00H, 'c', 00H, 't', 00H, ' ', 00H, 's', 00H
	DB	't', 00H, 'd', 00H, ':', 00H, ':', 00H, '_', 00H, 'S', 00H, 'i'
	DB	00H, 'm', 00H, 'p', 00H, 'l', 00H, 'e', 00H, '_', 00H, 't', 00H
	DB	'y', 00H, 'p', 00H, 'e', 00H, 's', 00H, '<', 00H, 'c', 00H, 'l'
	DB	00H, 'a', 00H, 's', 00H, 's', 00H, ' ', 00H, 'L', 00H, 'i', 00H
	DB	'v', 00H, 'i', 00H, 'n', 00H, 'g', 00H, 'E', 00H, 'n', 00H, 't'
	DB	00H, 'i', 00H, 't', 00H, 'y', 00H, ' ', 00H, '*', 00H, '>', 00H
	DB	' ', 00H, '>', 00H, ' ', 00H, '>', 00H, ':', 00H, ':', 00H, 'o'
	DB	00H, 'p', 00H, 'e', 00H, 'r', 00H, 'a', 00H, 't', 00H, 'o', 00H
	DB	'r', 00H, ' ', 00H, '*', 00H, 00H, 00H	; `string'
CONST	ENDS
;	COMDAT ??_C@_1NO@JHOOOHOP@?$AAs?$AAt?$AAd?$AA?3?$AA?3?$AA_?$AAV?$AAe?$AAc?$AAt?$AAo?$AAr?$AA_?$AAc?$AAo?$AAn?$AAs?$AAt?$AA_?$AAi?$AAt?$AAe?$AAr?$AAa?$AAt?$AAo?$AAr?$AA?$DM?$AAc?$AAl?$AAa?$AAs@
CONST	SEGMENT
??_C@_1NO@JHOOOHOP@?$AAs?$AAt?$AAd?$AA?3?$AA?3?$AA_?$AAV?$AAe?$AAc?$AAt?$AAo?$AAr?$AA_?$AAc?$AAo?$AAn?$AAs?$AAt?$AA_?$AAi?$AAt?$AAe?$AAr?$AAa?$AAt?$AAo?$AAr?$AA?$DM?$AAc?$AAl?$AAa?$AAs@ DB 's'
	DB	00H, 't', 00H, 'd', 00H, ':', 00H, ':', 00H, '_', 00H, 'V', 00H
	DB	'e', 00H, 'c', 00H, 't', 00H, 'o', 00H, 'r', 00H, '_', 00H, 'c'
	DB	00H, 'o', 00H, 'n', 00H, 's', 00H, 't', 00H, '_', 00H, 'i', 00H
	DB	't', 00H, 'e', 00H, 'r', 00H, 'a', 00H, 't', 00H, 'o', 00H, 'r'
	DB	00H, '<', 00H, 'c', 00H, 'l', 00H, 'a', 00H, 's', 00H, 's', 00H
	DB	' ', 00H, 's', 00H, 't', 00H, 'd', 00H, ':', 00H, ':', 00H, '_'
	DB	00H, 'V', 00H, 'e', 00H, 'c', 00H, 't', 00H, 'o', 00H, 'r', 00H
	DB	'_', 00H, 'v', 00H, 'a', 00H, 'l', 00H, '<', 00H, 's', 00H, 't'
	DB	00H, 'r', 00H, 'u', 00H, 'c', 00H, 't', 00H, ' ', 00H, 's', 00H
	DB	't', 00H, 'd', 00H, ':', 00H, ':', 00H, '_', 00H, 'S', 00H, 'i'
	DB	00H, 'm', 00H, 'p', 00H, 'l', 00H, 'e', 00H, '_', 00H, 't', 00H
	DB	'y', 00H, 'p', 00H, 'e', 00H, 's', 00H, '<', 00H, 'c', 00H, 'l'
	DB	00H, 'a', 00H, 's', 00H, 's', 00H, ' ', 00H, 'O', 00H, 'n', 00H
	DB	'S', 00H, 'c', 00H, 'r', 00H, 'e', 00H, 'e', 00H, 'n', 00H, ' '
	DB	00H, '*', 00H, '>', 00H, ' ', 00H, '>', 00H, ' ', 00H, '>', 00H
	DB	':', 00H, ':', 00H, 'o', 00H, 'p', 00H, 'e', 00H, 'r', 00H, 'a'
	DB	00H, 't', 00H, 'o', 00H, 'r', 00H, ' ', 00H, '*', 00H, 00H, 00H ; `string'
CONST	ENDS
;	COMDAT ??_C@_1EG@FOHJJHAC@?$AAv?$AAe?$AAc?$AAt?$AAo?$AAr?$AA?5?$AAi?$AAt?$AAe?$AAr?$AAa?$AAt?$AAo?$AAr?$AA?5?$AAn?$AAo?$AAt?$AA?5?$AAd?$AAe?$AAr?$AAe?$AAf?$AAe?$AAr?$AAe?$AAn?$AAc?$AAa?$AAb@
CONST	SEGMENT
??_C@_1EG@FOHJJHAC@?$AAv?$AAe?$AAc?$AAt?$AAo?$AAr?$AA?5?$AAi?$AAt?$AAe?$AAr?$AAa?$AAt?$AAo?$AAr?$AA?5?$AAn?$AAo?$AAt?$AA?5?$AAd?$AAe?$AAr?$AAe?$AAf?$AAe?$AAr?$AAe?$AAn?$AAc?$AAa?$AAb@ DB 'v'
	DB	00H, 'e', 00H, 'c', 00H, 't', 00H, 'o', 00H, 'r', 00H, ' ', 00H
	DB	'i', 00H, 't', 00H, 'e', 00H, 'r', 00H, 'a', 00H, 't', 00H, 'o'
	DB	00H, 'r', 00H, ' ', 00H, 'n', 00H, 'o', 00H, 't', 00H, ' ', 00H
	DB	'd', 00H, 'e', 00H, 'r', 00H, 'e', 00H, 'f', 00H, 'e', 00H, 'r'
	DB	00H, 'e', 00H, 'n', 00H, 'c', 00H, 'a', 00H, 'b', 00H, 'l', 00H
	DB	'e', 00H, 00H, 00H				; `string'
CONST	ENDS
;	COMDAT ??_C@_1JK@MCCMGKDA@?$AAs?$AAt?$AAd?$AA?3?$AA?3?$AAv?$AAe?$AAc?$AAt?$AAo?$AAr?$AA?$DM?$AAc?$AAl?$AAa?$AAs?$AAs?$AA?5?$AAE?$AAn?$AAe?$AAm?$AAy?$AA?5?$AA?$CK?$AA?0?$AAc?$AAl?$AAa?$AAs?$AAs?$AA?5@
CONST	SEGMENT
??_C@_1JK@MCCMGKDA@?$AAs?$AAt?$AAd?$AA?3?$AA?3?$AAv?$AAe?$AAc?$AAt?$AAo?$AAr?$AA?$DM?$AAc?$AAl?$AAa?$AAs?$AAs?$AA?5?$AAE?$AAn?$AAe?$AAm?$AAy?$AA?5?$AA?$CK?$AA?0?$AAc?$AAl?$AAa?$AAs?$AAs?$AA?5@ DB 's'
	DB	00H, 't', 00H, 'd', 00H, ':', 00H, ':', 00H, 'v', 00H, 'e', 00H
	DB	'c', 00H, 't', 00H, 'o', 00H, 'r', 00H, '<', 00H, 'c', 00H, 'l'
	DB	00H, 'a', 00H, 's', 00H, 's', 00H, ' ', 00H, 'E', 00H, 'n', 00H
	DB	'e', 00H, 'm', 00H, 'y', 00H, ' ', 00H, '*', 00H, ',', 00H, 'c'
	DB	00H, 'l', 00H, 'a', 00H, 's', 00H, 's', 00H, ' ', 00H, 's', 00H
	DB	't', 00H, 'd', 00H, ':', 00H, ':', 00H, 'a', 00H, 'l', 00H, 'l'
	DB	00H, 'o', 00H, 'c', 00H, 'a', 00H, 't', 00H, 'o', 00H, 'r', 00H
	DB	'<', 00H, 'c', 00H, 'l', 00H, 'a', 00H, 's', 00H, 's', 00H, ' '
	DB	00H, 'E', 00H, 'n', 00H, 'e', 00H, 'm', 00H, 'y', 00H, ' ', 00H
	DB	'*', 00H, '>', 00H, ' ', 00H, '>', 00H, ':', 00H, ':', 00H, 'o'
	DB	00H, 'p', 00H, 'e', 00H, 'r', 00H, 'a', 00H, 't', 00H, 'o', 00H
	DB	'r', 00H, ' ', 00H, '[', 00H, ']', 00H, 00H, 00H ; `string'
CONST	ENDS
;	COMDAT ??_C@_1BO@MEPPHOO@?$AA?$CC?$AAo?$AAu?$AAt?$AA?5?$AAo?$AAf?$AA?5?$AAr?$AAa?$AAn?$AAg?$AAe?$AA?$CC?$AA?$AA@
CONST	SEGMENT
??_C@_1BO@MEPPHOO@?$AA?$CC?$AAo?$AAu?$AAt?$AA?5?$AAo?$AAf?$AA?5?$AAr?$AAa?$AAn?$AAg?$AAe?$AA?$CC?$AA?$AA@ DB '"'
	DB	00H, 'o', 00H, 'u', 00H, 't', 00H, ' ', 00H, 'o', 00H, 'f', 00H
	DB	' ', 00H, 'r', 00H, 'a', 00H, 'n', 00H, 'g', 00H, 'e', 00H, '"'
	DB	00H, 00H, 00H				; `string'
CONST	ENDS
;	COMDAT ??_C@_1JO@DMPMMILD@?$AAs?$AAt?$AAd?$AA?3?$AA?3?$AAv?$AAe?$AAc?$AAt?$AAo?$AAr?$AA?$DM?$AAc?$AAl?$AAa?$AAs?$AAs?$AA?5?$AAB?$AAu?$AAl?$AAl?$AAe?$AAt?$AA?5?$AA?$CK?$AA?0?$AAc?$AAl?$AAa?$AAs?$AAs@
CONST	SEGMENT
??_C@_1JO@DMPMMILD@?$AAs?$AAt?$AAd?$AA?3?$AA?3?$AAv?$AAe?$AAc?$AAt?$AAo?$AAr?$AA?$DM?$AAc?$AAl?$AAa?$AAs?$AAs?$AA?5?$AAB?$AAu?$AAl?$AAl?$AAe?$AAt?$AA?5?$AA?$CK?$AA?0?$AAc?$AAl?$AAa?$AAs?$AAs@ DB 's'
	DB	00H, 't', 00H, 'd', 00H, ':', 00H, ':', 00H, 'v', 00H, 'e', 00H
	DB	'c', 00H, 't', 00H, 'o', 00H, 'r', 00H, '<', 00H, 'c', 00H, 'l'
	DB	00H, 'a', 00H, 's', 00H, 's', 00H, ' ', 00H, 'B', 00H, 'u', 00H
	DB	'l', 00H, 'l', 00H, 'e', 00H, 't', 00H, ' ', 00H, '*', 00H, ','
	DB	00H, 'c', 00H, 'l', 00H, 'a', 00H, 's', 00H, 's', 00H, ' ', 00H
	DB	's', 00H, 't', 00H, 'd', 00H, ':', 00H, ':', 00H, 'a', 00H, 'l'
	DB	00H, 'l', 00H, 'o', 00H, 'c', 00H, 'a', 00H, 't', 00H, 'o', 00H
	DB	'r', 00H, '<', 00H, 'c', 00H, 'l', 00H, 'a', 00H, 's', 00H, 's'
	DB	00H, ' ', 00H, 'B', 00H, 'u', 00H, 'l', 00H, 'l', 00H, 'e', 00H
	DB	't', 00H, ' ', 00H, '*', 00H, '>', 00H, ' ', 00H, '>', 00H, ':'
	DB	00H, ':', 00H, 'o', 00H, 'p', 00H, 'e', 00H, 'r', 00H, 'a', 00H
	DB	't', 00H, 'o', 00H, 'r', 00H, ' ', 00H, '[', 00H, ']', 00H, 00H
	DB	00H						; `string'
CONST	ENDS
;	COMDAT ??_C@_1FG@IBPIFFN@?$AA?$CC?$AAS?$AAt?$AAa?$AAn?$AAd?$AAa?$AAr?$AAd?$AA?5?$AAC?$AA?$CL?$AA?$CL?$AA?5?$AAL?$AAi?$AAb?$AAr?$AAa?$AAr?$AAi?$AAe?$AAs?$AA?5?$AAO?$AAu?$AAt?$AA?5?$AAo?$AAf?$AA?5?$AAR@
CONST	SEGMENT
??_C@_1FG@IBPIFFN@?$AA?$CC?$AAS?$AAt?$AAa?$AAn?$AAd?$AAa?$AAr?$AAd?$AA?5?$AAC?$AA?$CL?$AA?$CL?$AA?5?$AAL?$AAi?$AAb?$AAr?$AAa?$AAr?$AAi?$AAe?$AAs?$AA?5?$AAO?$AAu?$AAt?$AA?5?$AAo?$AAf?$AA?5?$AAR@ DB '"'
	DB	00H, 'S', 00H, 't', 00H, 'a', 00H, 'n', 00H, 'd', 00H, 'a', 00H
	DB	'r', 00H, 'd', 00H, ' ', 00H, 'C', 00H, '+', 00H, '+', 00H, ' '
	DB	00H, 'L', 00H, 'i', 00H, 'b', 00H, 'r', 00H, 'a', 00H, 'r', 00H
	DB	'i', 00H, 'e', 00H, 's', 00H, ' ', 00H, 'O', 00H, 'u', 00H, 't'
	DB	00H, ' ', 00H, 'o', 00H, 'f', 00H, ' ', 00H, 'R', 00H, 'a', 00H
	DB	'n', 00H, 'g', 00H, 'e', 00H, '"', 00H, ' ', 00H, '&', 00H, '&'
	DB	00H, ' ', 00H, '0', 00H, 00H, 00H		; `string'
CONST	ENDS
;	COMDAT ??_C@_0CE@OFMIGAMM@Standard?5C?$CL?$CL?5Libraries?5Out?5of?5Ra@
CONST	SEGMENT
??_C@_0CE@OFMIGAMM@Standard?5C?$CL?$CL?5Libraries?5Out?5of?5Ra@ DB 'Stand'
	DB	'ard C++ Libraries Out of Range', 00H	; `string'
CONST	ENDS
;	COMDAT ??_C@_1DM@LHGCHCBA@?$AAv?$AAe?$AAc?$AAt?$AAo?$AAr?$AA?5?$AAs?$AAu?$AAb?$AAs?$AAc?$AAr?$AAi?$AAp?$AAt?$AA?5?$AAo?$AAu?$AAt?$AA?5?$AAo?$AAf?$AA?5?$AAr?$AAa?$AAn?$AAg?$AAe?$AA?$AA@
CONST	SEGMENT
??_C@_1DM@LHGCHCBA@?$AAv?$AAe?$AAc?$AAt?$AAo?$AAr?$AA?5?$AAs?$AAu?$AAb?$AAs?$AAc?$AAr?$AAi?$AAp?$AAt?$AA?5?$AAo?$AAu?$AAt?$AA?5?$AAo?$AAf?$AA?5?$AAr?$AAa?$AAn?$AAg?$AAe?$AA?$AA@ DB 'v'
	DB	00H, 'e', 00H, 'c', 00H, 't', 00H, 'o', 00H, 'r', 00H, ' ', 00H
	DB	's', 00H, 'u', 00H, 'b', 00H, 's', 00H, 'c', 00H, 'r', 00H, 'i'
	DB	00H, 'p', 00H, 't', 00H, ' ', 00H, 'o', 00H, 'u', 00H, 't', 00H
	DB	' ', 00H, 'o', 00H, 'f', 00H, ' ', 00H, 'r', 00H, 'a', 00H, 'n'
	DB	00H, 'g', 00H, 'e', 00H, 00H, 00H		; `string'
CONST	ENDS
;	COMDAT ??_C@_1EI@HGIDLLCM@?$AAv?$AAe?$AAc?$AAt?$AAo?$AAr?$AA?5?$AAe?$AAr?$AAa?$AAs?$AAe?$AA?5?$AAi?$AAt?$AAe?$AAr?$AAa?$AAt?$AAo?$AAr?$AA?5?$AAo?$AAu?$AAt?$AAs?$AAi?$AAd?$AAe?$AA?5?$AAr?$AAa@
CONST	SEGMENT
??_C@_1EI@HGIDLLCM@?$AAv?$AAe?$AAc?$AAt?$AAo?$AAr?$AA?5?$AAe?$AAr?$AAa?$AAs?$AAe?$AA?5?$AAi?$AAt?$AAe?$AAr?$AAa?$AAt?$AAo?$AAr?$AA?5?$AAo?$AAu?$AAt?$AAs?$AAi?$AAd?$AAe?$AA?5?$AAr?$AAa@ DB 'v'
	DB	00H, 'e', 00H, 'c', 00H, 't', 00H, 'o', 00H, 'r', 00H, ' ', 00H
	DB	'e', 00H, 'r', 00H, 'a', 00H, 's', 00H, 'e', 00H, ' ', 00H, 'i'
	DB	00H, 't', 00H, 'e', 00H, 'r', 00H, 'a', 00H, 't', 00H, 'o', 00H
	DB	'r', 00H, ' ', 00H, 'o', 00H, 'u', 00H, 't', 00H, 's', 00H, 'i'
	DB	00H, 'd', 00H, 'e', 00H, ' ', 00H, 'r', 00H, 'a', 00H, 'n', 00H
	DB	'g', 00H, 'e', 00H, 00H, 00H			; `string'
CONST	ENDS
;	COMDAT ??_C@_1IM@OHMKGEOK@?$AAe?$AA?3?$AA?2?$AAp?$AAr?$AAo?$AAg?$AAr?$AAa?$AAm?$AA?5?$AAf?$AAi?$AAl?$AAe?$AAs?$AA?5?$AA?$CI?$AAx?$AA8?$AA6?$AA?$CJ?$AA?2?$AAm?$AAi?$AAc?$AAr?$AAo?$AAs?$AAo?$AAf?$AAt@
CONST	SEGMENT
??_C@_1IM@OHMKGEOK@?$AAe?$AA?3?$AA?2?$AAp?$AAr?$AAo?$AAg?$AAr?$AAa?$AAm?$AA?5?$AAf?$AAi?$AAl?$AAe?$AAs?$AA?5?$AA?$CI?$AAx?$AA8?$AA6?$AA?$CJ?$AA?2?$AAm?$AAi?$AAc?$AAr?$AAo?$AAs?$AAo?$AAf?$AAt@ DB 'e'
	DB	00H, ':', 00H, '\', 00H, 'p', 00H, 'r', 00H, 'o', 00H, 'g', 00H
	DB	'r', 00H, 'a', 00H, 'm', 00H, ' ', 00H, 'f', 00H, 'i', 00H, 'l'
	DB	00H, 'e', 00H, 's', 00H, ' ', 00H, '(', 00H, 'x', 00H, '8', 00H
	DB	'6', 00H, ')', 00H, '\', 00H, 'm', 00H, 'i', 00H, 'c', 00H, 'r'
	DB	00H, 'o', 00H, 's', 00H, 'o', 00H, 'f', 00H, 't', 00H, ' ', 00H
	DB	'v', 00H, 'i', 00H, 's', 00H, 'u', 00H, 'a', 00H, 'l', 00H, ' '
	DB	00H, 's', 00H, 't', 00H, 'u', 00H, 'd', 00H, 'i', 00H, 'o', 00H
	DB	' ', 00H, '1', 00H, '1', 00H, '.', 00H, '0', 00H, '\', 00H, 'v'
	DB	00H, 'c', 00H, '\', 00H, 'i', 00H, 'n', 00H, 'c', 00H, 'l', 00H
	DB	'u', 00H, 'd', 00H, 'e', 00H, '\', 00H, 'v', 00H, 'e', 00H, 'c'
	DB	00H, 't', 00H, 'o', 00H, 'r', 00H, 00H, 00H	; `string'
CONST	ENDS
;	COMDAT ??_C@_1IO@DBKIKIHF@?$AAe?$AA?3?$AA?2?$AAp?$AAr?$AAo?$AAg?$AAr?$AAa?$AAm?$AA?5?$AAf?$AAi?$AAl?$AAe?$AAs?$AA?5?$AA?$CI?$AAx?$AA8?$AA6?$AA?$CJ?$AA?2?$AAm?$AAi?$AAc?$AAr?$AAo?$AAs?$AAo?$AAf?$AAt@
CONST	SEGMENT
??_C@_1IO@DBKIKIHF@?$AAe?$AA?3?$AA?2?$AAp?$AAr?$AAo?$AAg?$AAr?$AAa?$AAm?$AA?5?$AAf?$AAi?$AAl?$AAe?$AAs?$AA?5?$AA?$CI?$AAx?$AA8?$AA6?$AA?$CJ?$AA?2?$AAm?$AAi?$AAc?$AAr?$AAo?$AAs?$AAo?$AAf?$AAt@ DB 'e'
	DB	00H, ':', 00H, '\', 00H, 'p', 00H, 'r', 00H, 'o', 00H, 'g', 00H
	DB	'r', 00H, 'a', 00H, 'm', 00H, ' ', 00H, 'f', 00H, 'i', 00H, 'l'
	DB	00H, 'e', 00H, 's', 00H, ' ', 00H, '(', 00H, 'x', 00H, '8', 00H
	DB	'6', 00H, ')', 00H, '\', 00H, 'm', 00H, 'i', 00H, 'c', 00H, 'r'
	DB	00H, 'o', 00H, 's', 00H, 'o', 00H, 'f', 00H, 't', 00H, ' ', 00H
	DB	'v', 00H, 'i', 00H, 's', 00H, 'u', 00H, 'a', 00H, 'l', 00H, ' '
	DB	00H, 's', 00H, 't', 00H, 'u', 00H, 'd', 00H, 'i', 00H, 'o', 00H
	DB	' ', 00H, '1', 00H, '1', 00H, '.', 00H, '0', 00H, '\', 00H, 'v'
	DB	00H, 'c', 00H, '\', 00H, 'i', 00H, 'n', 00H, 'c', 00H, 'l', 00H
	DB	'u', 00H, 'd', 00H, 'e', 00H, '\', 00H, 'x', 00H, 's', 00H, 't'
	DB	00H, 'r', 00H, 'i', 00H, 'n', 00H, 'g', 00H, 00H, 00H ; `string'
CONST	ENDS
;	COMDAT ??_C@_09GBKDONCB@you?5lose?$CB?$AA@
CONST	SEGMENT
??_C@_09GBKDONCB@you?5lose?$CB?$AA@ DB 'you lose!', 00H	; `string'
CONST	ENDS
;	COMDAT ??_C@_08DGMLKBON@you?5win?$CB?$AA@
CONST	SEGMENT
??_C@_08DGMLKBON@you?5win?$CB?$AA@ DB 'you win!', 00H	; `string'
CONST	ENDS
;	COMDAT ??_C@_08IDPINFPD@Player?51?$AA@
CONST	SEGMENT
??_C@_08IDPINFPD@Player?51?$AA@ DB 'Player 1', 00H	; `string'
CONST	ENDS
;	COMDAT ??_C@_0EE@NEGOOMNL@A?5little?5?$CIglitchy?$CJ?5game?5that?5I?5m@
CONST	SEGMENT
??_C@_0EE@NEGOOMNL@A?5little?5?$CIglitchy?$CJ?5game?5that?5I?5m@ DB 'A li'
	DB	'ttle (glitchy) game that I made just for you. Hope you like i'
	DB	't!', 00H					; `string'
CONST	ENDS
;	COMDAT ??_C@_0EB@EJGMMLCB@Now?0?5do?5you?5want?5?$CI0?$CJ?5no?5colors?5a@
CONST	SEGMENT
??_C@_0EB@EJGMMLCB@Now?0?5do?5you?5want?5?$CI0?$CJ?5no?5colors?5a@ DB 'No'
	DB	'w, do you want (0) no colors and no lag or (1) colors and lag'
	DB	'?', 00H					; `string'
CONST	ENDS
;	COMDAT ??_C@_0CI@FIKJMPDF@Anything?5else?0?5and?5it?8ll?5just?5be@
CONST	SEGMENT
??_C@_0CI@FIKJMPDF@Anything?5else?0?5and?5it?8ll?5just?5be@ DB 'Anything '
	DB	'else, and it''ll just be random', 00H	; `string'
CONST	ENDS
;	COMDAT ??_C@_01EEMJAFIK@?6?$AA@
CONST	SEGMENT
??_C@_01EEMJAFIK@?6?$AA@ DB 0aH, 00H			; `string'
CONST	ENDS
;	COMDAT ??_C@_0L@BBALFDB@?3?5?5Ammo?3?5?5?$AA@
CONST	SEGMENT
??_C@_0L@BBALFDB@?3?5?5Ammo?3?5?5?$AA@ DB ':  Ammo:  ', 00H ; `string'
CONST	ENDS
;	COMDAT ??_C@_09LCCGMOOO@?5Health?3?5?$AA@
CONST	SEGMENT
??_C@_09LCCGMOOO@?5Health?3?5?$AA@ DB ' Health: ', 00H	; `string'
CONST	ENDS
;	COMDAT ??_C@_08NFNKKEKP@Color?507?$AA@
CONST	SEGMENT
??_C@_08NFNKKEKP@Color?507?$AA@ DB 'Color 07', 00H	; `string'
CONST	ENDS
;	COMDAT ??_C@_08OBFFCDMO@Color?5?$EA?$EA?$AA@
CONST	SEGMENT
??_C@_08OBFFCDMO@Color?5?$EA?$EA?$AA@ DB 'Color @@', 00H ; `string'
CONST	ENDS
;	COMDAT ??_7EnemySoldier@@6B@
CONST	SEGMENT
??_7EnemySoldier@@6B@ DD FLAT:??_R4EnemySoldier@@6B@	; EnemySoldier::`vftable'
	DD	FLAT:??_EEnemySoldier@@UAEPAXI@Z
	DD	FLAT:?toChar@EnemySoldier@@MAEDXZ
	DD	FLAT:?move@OnScreen@@MAE_NW4Directions@@H@Z
	DD	FLAT:?subHealth@LivingEntity@@UAEXH@Z
	DD	FLAT:?shoot@EnemySoldier@@UAEXW4Directions@@@Z
	DD	FLAT:?processAndAct@EnemySoldier@@UAEXPAVLivingEntity@@@Z
CONST	ENDS
;	COMDAT ??_7Enemy@@6B@
CONST	SEGMENT
??_7Enemy@@6B@ DD FLAT:??_R4Enemy@@6B@			; Enemy::`vftable'
	DD	FLAT:??_EEnemy@@UAEPAXI@Z
	DD	FLAT:__purecall
	DD	FLAT:?move@OnScreen@@MAE_NW4Directions@@H@Z
	DD	FLAT:?subHealth@LivingEntity@@UAEXH@Z
	DD	FLAT:__purecall
	DD	FLAT:__purecall
CONST	ENDS
;	COMDAT ??_7Player@@6B@
CONST	SEGMENT
??_7Player@@6B@ DD FLAT:??_R4Player@@6B@		; Player::`vftable'
	DD	FLAT:??_EPlayer@@UAEPAXI@Z
	DD	FLAT:?toChar@Player@@MAEDXZ
	DD	FLAT:?move@OnScreen@@MAE_NW4Directions@@H@Z
	DD	FLAT:?subHealth@Player@@UAEXH@Z
	DD	FLAT:?shoot@Player@@UAEXW4Directions@@@Z
CONST	ENDS
;	COMDAT ??_7FightingEntity@@6B@
CONST	SEGMENT
??_7FightingEntity@@6B@ DD FLAT:??_R4FightingEntity@@6B@ ; FightingEntity::`vftable'
	DD	FLAT:??_EFightingEntity@@UAEPAXI@Z
	DD	FLAT:__purecall
	DD	FLAT:?move@OnScreen@@MAE_NW4Directions@@H@Z
	DD	FLAT:?subHealth@LivingEntity@@UAEXH@Z
	DD	FLAT:__purecall
CONST	ENDS
;	COMDAT ??_7Bullet@@6B@
CONST	SEGMENT
??_7Bullet@@6B@ DD FLAT:??_R4Bullet@@6B@		; Bullet::`vftable'
	DD	FLAT:??_EBullet@@UAEPAXI@Z
	DD	FLAT:?toChar@Bullet@@MAEDXZ
	DD	FLAT:?move@OnScreen@@MAE_NW4Directions@@H@Z
	DD	FLAT:?move@Bullet@@MAE_NXZ
CONST	ENDS
;	COMDAT ??_7LivingEntity@@6B@
CONST	SEGMENT
??_7LivingEntity@@6B@ DD FLAT:??_R4LivingEntity@@6B@	; LivingEntity::`vftable'
	DD	FLAT:??_ELivingEntity@@UAEPAXI@Z
	DD	FLAT:__purecall
	DD	FLAT:?move@OnScreen@@MAE_NW4Directions@@H@Z
	DD	FLAT:?subHealth@LivingEntity@@UAEXH@Z
CONST	ENDS
;	COMDAT ??_7OnScreen@@6B@
CONST	SEGMENT
??_7OnScreen@@6B@ DD FLAT:??_R4OnScreen@@6B@		; OnScreen::`vftable'
	DD	FLAT:??_EOnScreen@@UAEPAXI@Z
	DD	FLAT:__purecall
	DD	FLAT:?move@OnScreen@@MAE_NW4Directions@@H@Z
CONST	ENDS
;	COMDAT ??_C@_05PDJBBECF@pause?$AA@
CONST	SEGMENT
??_C@_05PDJBBECF@pause?$AA@ DB 'pause', 00H		; `string'
CONST	ENDS
;	COMDAT ??_C@_05KKCIMGE@error?$AA@
CONST	SEGMENT
??_C@_05KKCIMGE@error?$AA@ DB 'error', 00H		; `string'
CONST	ENDS
;	COMDAT ??_C@_03LCPHGAHP@cls?$AA@
CONST	SEGMENT
??_C@_03LCPHGAHP@cls?$AA@ DB 'cls', 00H			; `string'
CONST	ENDS
;	COMDAT ??_C@_15GANGMFKL@?$AA?$CF?$AAs?$AA?$AA@
CONST	SEGMENT
??_C@_15GANGMFKL@?$AA?$CF?$AAs?$AA?$AA@ DB '%', 00H, 's', 00H, 00H, 00H ; `string'
CONST	ENDS
;	COMDAT ??_C@_06FHFOAHML@system?$AA@
CONST	SEGMENT
??_C@_06FHFOAHML@system?$AA@ DB 'system', 00H		; `string'
CONST	ENDS
;	COMDAT ??_7_System_error_category@std@@6B@
CONST	SEGMENT
??_7_System_error_category@std@@6B@ DD FLAT:??_R4_System_error_category@std@@6B@ ; std::_System_error_category::`vftable'
	DD	FLAT:??_E_System_error_category@std@@UAEPAXI@Z
	DD	FLAT:?name@_System_error_category@std@@UBEPBDXZ
	DD	FLAT:?message@_System_error_category@std@@UBE?AV?$basic_string@DU?$char_traits@D@std@@V?$allocator@D@2@@2@H@Z
	DD	FLAT:?default_error_condition@_System_error_category@std@@UBE?AVerror_condition@2@H@Z
	DD	FLAT:?equivalent@error_category@std@@UBE_NABVerror_code@2@H@Z
	DD	FLAT:?equivalent@error_category@std@@UBE_NHABVerror_condition@2@@Z
CONST	ENDS
;	COMDAT ??_C@_0BG@PADBLCHM@iostream?5stream?5error?$AA@
CONST	SEGMENT
??_C@_0BG@PADBLCHM@iostream?5stream?5error?$AA@ DB 'iostream stream error'
	DB	00H						; `string'
CONST	ENDS
;	COMDAT ??_C@_08LLGCOLLL@iostream?$AA@
CONST	SEGMENT
??_C@_08LLGCOLLL@iostream?$AA@ DB 'iostream', 00H	; `string'
CONST	ENDS
;	COMDAT ??_7_Iostream_error_category@std@@6B@
CONST	SEGMENT
??_7_Iostream_error_category@std@@6B@ DD FLAT:??_R4_Iostream_error_category@std@@6B@ ; std::_Iostream_error_category::`vftable'
	DD	FLAT:??_E_Iostream_error_category@std@@UAEPAXI@Z
	DD	FLAT:?name@_Iostream_error_category@std@@UBEPBDXZ
	DD	FLAT:?message@_Iostream_error_category@std@@UBE?AV?$basic_string@DU?$char_traits@D@std@@V?$allocator@D@2@@2@H@Z
	DD	FLAT:?default_error_condition@error_category@std@@UBE?AVerror_condition@2@H@Z
	DD	FLAT:?equivalent@error_category@std@@UBE_NABVerror_code@2@H@Z
	DD	FLAT:?equivalent@error_category@std@@UBE_NHABVerror_condition@2@@Z
CONST	ENDS
;	COMDAT ??_C@_0O@BFJCFAAK@unknown?5error?$AA@
CONST	SEGMENT
??_C@_0O@BFJCFAAK@unknown?5error?$AA@ DB 'unknown error', 00H ; `string'
CONST	ENDS
;	COMDAT ??_C@_07DCLBNMLN@generic?$AA@
CONST	SEGMENT
??_C@_07DCLBNMLN@generic?$AA@ DB 'generic', 00H		; `string'
CONST	ENDS
;	COMDAT ??_7_Generic_error_category@std@@6B@
CONST	SEGMENT
??_7_Generic_error_category@std@@6B@ DD FLAT:??_R4_Generic_error_category@std@@6B@ ; std::_Generic_error_category::`vftable'
	DD	FLAT:??_E_Generic_error_category@std@@UAEPAXI@Z
	DD	FLAT:?name@_Generic_error_category@std@@UBEPBDXZ
	DD	FLAT:?message@_Generic_error_category@std@@UBE?AV?$basic_string@DU?$char_traits@D@std@@V?$allocator@D@2@@2@H@Z
	DD	FLAT:?default_error_condition@error_category@std@@UBE?AVerror_condition@2@H@Z
	DD	FLAT:?equivalent@error_category@std@@UBE_NABVerror_code@2@H@Z
	DD	FLAT:?equivalent@error_category@std@@UBE_NHABVerror_condition@2@@Z
CONST	ENDS
;	COMDAT ??_7error_category@std@@6B@
CONST	SEGMENT
??_7error_category@std@@6B@ DD FLAT:??_R4error_category@std@@6B@ ; std::error_category::`vftable'
	DD	FLAT:??_Eerror_category@std@@UAEPAXI@Z
	DD	FLAT:__purecall
	DD	FLAT:__purecall
	DD	FLAT:?default_error_condition@error_category@std@@UBE?AVerror_condition@2@H@Z
	DD	FLAT:?equivalent@error_category@std@@UBE_NABVerror_code@2@H@Z
	DD	FLAT:?equivalent@error_category@std@@UBE_NHABVerror_condition@2@@Z
CONST	ENDS
;	COMDAT ?npos@?$basic_string@DU?$char_traits@D@std@@V?$allocator@D@2@@std@@2IB
CONST	SEGMENT
?npos@?$basic_string@DU?$char_traits@D@std@@V?$allocator@D@2@@std@@2IB DD 0ffffffffH ; std::basic_string<char,std::char_traits<char>,std::allocator<char> >::npos
CONST	ENDS
;	COMDAT ??_C@_1DC@POOIKBAO@?$AAI?$AAT?$AAE?$AAR?$AAA?$AAT?$AAO?$AAR?$AA?5?$AAL?$AAI?$AAS?$AAT?$AA?5?$AAC?$AAO?$AAR?$AAR?$AAU?$AAP?$AAT?$AAE?$AAD?$AA?$CB?$AA?$AA@
CONST	SEGMENT
??_C@_1DC@POOIKBAO@?$AAI?$AAT?$AAE?$AAR?$AAA?$AAT?$AAO?$AAR?$AA?5?$AAL?$AAI?$AAS?$AAT?$AA?5?$AAC?$AAO?$AAR?$AAR?$AAU?$AAP?$AAT?$AAE?$AAD?$AA?$CB?$AA?$AA@ DB 'I'
	DB	00H, 'T', 00H, 'E', 00H, 'R', 00H, 'A', 00H, 'T', 00H, 'O', 00H
	DB	'R', 00H, ' ', 00H, 'L', 00H, 'I', 00H, 'S', 00H, 'T', 00H, ' '
	DB	00H, 'C', 00H, 'O', 00H, 'R', 00H, 'R', 00H, 'U', 00H, 'P', 00H
	DB	'T', 00H, 'E', 00H, 'D', 00H, '!', 00H, 00H, 00H ; `string'
CONST	ENDS
;	COMDAT ??_C@_1JA@NLMHOKKJ@?$AAe?$AA?3?$AA?2?$AAp?$AAr?$AAo?$AAg?$AAr?$AAa?$AAm?$AA?5?$AAf?$AAi?$AAl?$AAe?$AAs?$AA?5?$AA?$CI?$AAx?$AA8?$AA6?$AA?$CJ?$AA?2?$AAm?$AAi?$AAc?$AAr?$AAo?$AAs?$AAo?$AAf?$AAt@
CONST	SEGMENT
??_C@_1JA@NLMHOKKJ@?$AAe?$AA?3?$AA?2?$AAp?$AAr?$AAo?$AAg?$AAr?$AAa?$AAm?$AA?5?$AAf?$AAi?$AAl?$AAe?$AAs?$AA?5?$AA?$CI?$AAx?$AA8?$AA6?$AA?$CJ?$AA?2?$AAm?$AAi?$AAc?$AAr?$AAo?$AAs?$AAo?$AAf?$AAt@ DB 'e'
	DB	00H, ':', 00H, '\', 00H, 'p', 00H, 'r', 00H, 'o', 00H, 'g', 00H
	DB	'r', 00H, 'a', 00H, 'm', 00H, ' ', 00H, 'f', 00H, 'i', 00H, 'l'
	DB	00H, 'e', 00H, 's', 00H, ' ', 00H, '(', 00H, 'x', 00H, '8', 00H
	DB	'6', 00H, ')', 00H, '\', 00H, 'm', 00H, 'i', 00H, 'c', 00H, 'r'
	DB	00H, 'o', 00H, 's', 00H, 'o', 00H, 'f', 00H, 't', 00H, ' ', 00H
	DB	'v', 00H, 'i', 00H, 's', 00H, 'u', 00H, 'a', 00H, 'l', 00H, ' '
	DB	00H, 's', 00H, 't', 00H, 'u', 00H, 'd', 00H, 'i', 00H, 'o', 00H
	DB	' ', 00H, '1', 00H, '1', 00H, '.', 00H, '0', 00H, '\', 00H, 'v'
	DB	00H, 'c', 00H, '\', 00H, 'i', 00H, 'n', 00H, 'c', 00H, 'l', 00H
	DB	'u', 00H, 'd', 00H, 'e', 00H, '\', 00H, 'x', 00H, 'u', 00H, 't'
	DB	00H, 'i', 00H, 'l', 00H, 'i', 00H, 't', 00H, 'y', 00H, 00H, 00H ; `string'
CONST	ENDS
;	COMDAT xdata$x
xdata$x	SEGMENT
__unwindtable$??$_Debug_range2@V?$_Vector_const_iterator@V?$_Vector_val@U?$_Simple_types@PAVEnemy@@@std@@@std@@@std@@@std@@YAXV?$_Vector_const_iterator@V?$_Vector_val@U?$_Simple_types@PAVEnemy@@@std@@@std@@@0@0PB_WIUrandom_access_iterator_tag@0@@Z DD 0ffffffffH
	DD	FLAT:__unwindfunclet$??$_Debug_range2@V?$_Vector_const_iterator@V?$_Vector_val@U?$_Simple_types@PAVEnemy@@@std@@@std@@@std@@@std@@YAXV?$_Vector_const_iterator@V?$_Vector_val@U?$_Simple_types@PAVEnemy@@@std@@@std@@@0@0PB_WIUrandom_access_iterator_tag@0@@Z$0
	DD	00H
	DD	FLAT:__unwindfunclet$??$_Debug_range2@V?$_Vector_const_iterator@V?$_Vector_val@U?$_Simple_types@PAVEnemy@@@std@@@std@@@std@@@std@@YAXV?$_Vector_const_iterator@V?$_Vector_val@U?$_Simple_types@PAVEnemy@@@std@@@std@@@0@0PB_WIUrandom_access_iterator_tag@0@@Z$1
__ehfuncinfo$??$_Debug_range2@V?$_Vector_const_iterator@V?$_Vector_val@U?$_Simple_types@PAVEnemy@@@std@@@std@@@std@@@std@@YAXV?$_Vector_const_iterator@V?$_Vector_val@U?$_Simple_types@PAVEnemy@@@std@@@std@@@0@0PB_WIUrandom_access_iterator_tag@0@@Z DD 019930522H
	DD	02H
	DD	FLAT:__unwindtable$??$_Debug_range2@V?$_Vector_const_iterator@V?$_Vector_val@U?$_Simple_types@PAVEnemy@@@std@@@std@@@std@@@std@@YAXV?$_Vector_const_iterator@V?$_Vector_val@U?$_Simple_types@PAVEnemy@@@std@@@std@@@0@0PB_WIUrandom_access_iterator_tag@0@@Z
	DD	2 DUP(00H)
	DD	2 DUP(00H)
	DD	00H
	DD	01H
xdata$x	ENDS
;	COMDAT xdata$x
xdata$x	SEGMENT
__unwindtable$??$_Debug_range@V?$_Vector_const_iterator@V?$_Vector_val@U?$_Simple_types@PAVEnemy@@@std@@@std@@@std@@@std@@YAXV?$_Vector_const_iterator@V?$_Vector_val@U?$_Simple_types@PAVEnemy@@@std@@@std@@@0@0PB_WI@Z DD 0ffffffffH
	DD	FLAT:__unwindfunclet$??$_Debug_range@V?$_Vector_const_iterator@V?$_Vector_val@U?$_Simple_types@PAVEnemy@@@std@@@std@@@std@@@std@@YAXV?$_Vector_const_iterator@V?$_Vector_val@U?$_Simple_types@PAVEnemy@@@std@@@std@@@0@0PB_WI@Z$0
	DD	00H
	DD	FLAT:__unwindfunclet$??$_Debug_range@V?$_Vector_const_iterator@V?$_Vector_val@U?$_Simple_types@PAVEnemy@@@std@@@std@@@std@@@std@@YAXV?$_Vector_const_iterator@V?$_Vector_val@U?$_Simple_types@PAVEnemy@@@std@@@std@@@0@0PB_WI@Z$1
	DD	01H
	DD	FLAT:__unwindfunclet$??$_Debug_range@V?$_Vector_const_iterator@V?$_Vector_val@U?$_Simple_types@PAVEnemy@@@std@@@std@@@std@@@std@@YAXV?$_Vector_const_iterator@V?$_Vector_val@U?$_Simple_types@PAVEnemy@@@std@@@std@@@0@0PB_WI@Z$2
__ehfuncinfo$??$_Debug_range@V?$_Vector_const_iterator@V?$_Vector_val@U?$_Simple_types@PAVEnemy@@@std@@@std@@@std@@@std@@YAXV?$_Vector_const_iterator@V?$_Vector_val@U?$_Simple_types@PAVEnemy@@@std@@@std@@@0@0PB_WI@Z DD 019930522H
	DD	03H
	DD	FLAT:__unwindtable$??$_Debug_range@V?$_Vector_const_iterator@V?$_Vector_val@U?$_Simple_types@PAVEnemy@@@std@@@std@@@std@@@std@@YAXV?$_Vector_const_iterator@V?$_Vector_val@U?$_Simple_types@PAVEnemy@@@std@@@std@@@0@0PB_WI@Z
	DD	2 DUP(00H)
	DD	2 DUP(00H)
	DD	00H
	DD	01H
xdata$x	ENDS
;	COMDAT xdata$x
xdata$x	SEGMENT
__unwindtable$??$construct@PADAAPAD@?$allocator@D@std@@QAEXPAPADAAPAD@Z DD 0ffffffffH
	DD	FLAT:__unwindfunclet$??$construct@PADAAPAD@?$allocator@D@std@@QAEXPAPADAAPAD@Z$0
__ehfuncinfo$??$construct@PADAAPAD@?$allocator@D@std@@QAEXPAPADAAPAD@Z DD 019930522H
	DD	01H
	DD	FLAT:__unwindtable$??$construct@PADAAPAD@?$allocator@D@std@@QAEXPAPADAAPAD@Z
	DD	2 DUP(00H)
	DD	2 DUP(00H)
	DD	00H
	DD	01H
xdata$x	ENDS
;	COMDAT xdata$x
xdata$x	SEGMENT
__unwindtable$??$construct@PAVEnemy@@AAPAV1@@?$allocator@PAVEnemy@@@std@@QAEXPAPAVEnemy@@AAPAV2@@Z DD 0ffffffffH
	DD	FLAT:__unwindfunclet$??$construct@PAVEnemy@@AAPAV1@@?$allocator@PAVEnemy@@@std@@QAEXPAPAVEnemy@@AAPAV2@@Z$0
__ehfuncinfo$??$construct@PAVEnemy@@AAPAV1@@?$allocator@PAVEnemy@@@std@@QAEXPAPAVEnemy@@AAPAV2@@Z DD 019930522H
	DD	01H
	DD	FLAT:__unwindtable$??$construct@PAVEnemy@@AAPAV1@@?$allocator@PAVEnemy@@@std@@QAEXPAPAVEnemy@@AAPAV2@@Z
	DD	2 DUP(00H)
	DD	2 DUP(00H)
	DD	00H
	DD	01H
xdata$x	ENDS
;	COMDAT xdata$x
xdata$x	SEGMENT
__catchsym$??$_Uninit_copy@V?$_Vector_const_iterator@V?$_Vector_val@U?$_Simple_types@PAVEnemy@@@std@@@std@@@std@@PAPAVEnemy@@V?$allocator@PAVEnemy@@@2@@std@@YAPAPAVEnemy@@V?$_Vector_const_iterator@V?$_Vector_val@U?$_Simple_types@PAVEnemy@@@std@@@std@@@0@0PAPAV1@AAU?$_Wrap_alloc@V?$allocator@PAVEnemy@@@std@@@0@U_Nonscalar_ptr_iterator_tag@0@@Z$6 DD 040H
	DD	00H
	DD	00H
	DD	FLAT:__catch$??$_Uninit_copy@V?$_Vector_const_iterator@V?$_Vector_val@U?$_Simple_types@PAVEnemy@@@std@@@std@@@std@@PAPAVEnemy@@V?$allocator@PAVEnemy@@@2@@std@@YAPAPAVEnemy@@V?$_Vector_const_iterator@V?$_Vector_val@U?$_Simple_types@PAVEnemy@@@std@@@std@@@0@0PAPAV1@AAU?$_Wrap_alloc@V?$allocator@PAVEnemy@@@std@@@0@U_Nonscalar_ptr_iterator_tag@0@@Z$0
__tryblocktable$??$_Uninit_copy@V?$_Vector_const_iterator@V?$_Vector_val@U?$_Simple_types@PAVEnemy@@@std@@@std@@@std@@PAPAVEnemy@@V?$allocator@PAVEnemy@@@2@@std@@YAPAPAVEnemy@@V?$_Vector_const_iterator@V?$_Vector_val@U?$_Simple_types@PAVEnemy@@@std@@@std@@@0@0PAPAV1@AAU?$_Wrap_alloc@V?$allocator@PAVEnemy@@@std@@@0@U_Nonscalar_ptr_iterator_tag@0@@Z DD 03H
	DD	03H
	DD	04H
	DD	01H
	DD	FLAT:__catchsym$??$_Uninit_copy@V?$_Vector_const_iterator@V?$_Vector_val@U?$_Simple_types@PAVEnemy@@@std@@@std@@@std@@PAPAVEnemy@@V?$allocator@PAVEnemy@@@2@@std@@YAPAPAVEnemy@@V?$_Vector_const_iterator@V?$_Vector_val@U?$_Simple_types@PAVEnemy@@@std@@@std@@@0@0PAPAV1@AAU?$_Wrap_alloc@V?$allocator@PAVEnemy@@@std@@@0@U_Nonscalar_ptr_iterator_tag@0@@Z$6
__ehfuncinfo$??$_Uninit_copy@V?$_Vector_const_iterator@V?$_Vector_val@U?$_Simple_types@PAVEnemy@@@std@@@std@@@std@@PAPAVEnemy@@V?$allocator@PAVEnemy@@@2@@std@@YAPAPAVEnemy@@V?$_Vector_const_iterator@V?$_Vector_val@U?$_Simple_types@PAVEnemy@@@std@@@std@@@0@0PAPAV1@AAU?$_Wrap_alloc@V?$allocator@PAVEnemy@@@std@@@0@U_Nonscalar_ptr_iterator_tag@0@@Z DD 019930522H
	DD	05H
	DD	FLAT:__unwindtable$??$_Uninit_copy@V?$_Vector_const_iterator@V?$_Vector_val@U?$_Simple_types@PAVEnemy@@@std@@@std@@@std@@PAPAVEnemy@@V?$allocator@PAVEnemy@@@2@@std@@YAPAPAVEnemy@@V?$_Vector_const_iterator@V?$_Vector_val@U?$_Simple_types@PAVEnemy@@@std@@@std@@@0@0PAPAV1@AAU?$_Wrap_alloc@V?$allocator@PAVEnemy@@@std@@@0@U_Nonscalar_ptr_iterator_tag@0@@Z
	DD	01H
	DD	FLAT:__tryblocktable$??$_Uninit_copy@V?$_Vector_const_iterator@V?$_Vector_val@U?$_Simple_types@PAVEnemy@@@std@@@std@@@std@@PAPAVEnemy@@V?$allocator@PAVEnemy@@@2@@std@@YAPAPAVEnemy@@V?$_Vector_const_iterator@V?$_Vector_val@U?$_Simple_types@PAVEnemy@@@std@@@std@@@0@0PAPAV1@AAU?$_Wrap_alloc@V?$allocator@PAVEnemy@@@std@@@0@U_Nonscalar_ptr_iterator_tag@0@@Z
	DD	2 DUP(00H)
	DD	00H
	DD	01H
__unwindtable$??$_Uninit_copy@V?$_Vector_const_iterator@V?$_Vector_val@U?$_Simple_types@PAVEnemy@@@std@@@std@@@std@@PAPAVEnemy@@V?$allocator@PAVEnemy@@@2@@std@@YAPAPAVEnemy@@V?$_Vector_const_iterator@V?$_Vector_val@U?$_Simple_types@PAVEnemy@@@std@@@std@@@0@0PAPAV1@AAU?$_Wrap_alloc@V?$allocator@PAVEnemy@@@std@@@0@U_Nonscalar_ptr_iterator_tag@0@@Z DD 0ffffffffH
	DD	FLAT:__unwindfunclet$??$_Uninit_copy@V?$_Vector_const_iterator@V?$_Vector_val@U?$_Simple_types@PAVEnemy@@@std@@@std@@@std@@PAPAVEnemy@@V?$allocator@PAVEnemy@@@2@@std@@YAPAPAVEnemy@@V?$_Vector_const_iterator@V?$_Vector_val@U?$_Simple_types@PAVEnemy@@@std@@@std@@@0@0PAPAV1@AAU?$_Wrap_alloc@V?$allocator@PAVEnemy@@@std@@@0@U_Nonscalar_ptr_iterator_tag@0@@Z$2
	DD	00H
	DD	FLAT:__unwindfunclet$??$_Uninit_copy@V?$_Vector_const_iterator@V?$_Vector_val@U?$_Simple_types@PAVEnemy@@@std@@@std@@@std@@PAPAVEnemy@@V?$allocator@PAVEnemy@@@2@@std@@YAPAPAVEnemy@@V?$_Vector_const_iterator@V?$_Vector_val@U?$_Simple_types@PAVEnemy@@@std@@@std@@@0@0PAPAV1@AAU?$_Wrap_alloc@V?$allocator@PAVEnemy@@@std@@@0@U_Nonscalar_ptr_iterator_tag@0@@Z$3
	DD	01H
	DD	FLAT:__unwindfunclet$??$_Uninit_copy@V?$_Vector_const_iterator@V?$_Vector_val@U?$_Simple_types@PAVEnemy@@@std@@@std@@@std@@PAPAVEnemy@@V?$allocator@PAVEnemy@@@2@@std@@YAPAPAVEnemy@@V?$_Vector_const_iterator@V?$_Vector_val@U?$_Simple_types@PAVEnemy@@@std@@@std@@@0@0PAPAV1@AAU?$_Wrap_alloc@V?$allocator@PAVEnemy@@@std@@@0@U_Nonscalar_ptr_iterator_tag@0@@Z$4
	DD	01H
	DD	00H
	DD	01H
	DD	00H
xdata$x	ENDS
;	COMDAT xdata$x
xdata$x	SEGMENT
__unwindtable$??$construct@PAVBullet@@AAPAV1@@?$allocator@PAVBullet@@@std@@QAEXPAPAVBullet@@AAPAV2@@Z DD 0ffffffffH
	DD	FLAT:__unwindfunclet$??$construct@PAVBullet@@AAPAV1@@?$allocator@PAVBullet@@@std@@QAEXPAPAVBullet@@AAPAV2@@Z$0
__ehfuncinfo$??$construct@PAVBullet@@AAPAV1@@?$allocator@PAVBullet@@@std@@QAEXPAPAVBullet@@AAPAV2@@Z DD 019930522H
	DD	01H
	DD	FLAT:__unwindtable$??$construct@PAVBullet@@AAPAV1@@?$allocator@PAVBullet@@@std@@QAEXPAPAVBullet@@AAPAV2@@Z
	DD	2 DUP(00H)
	DD	2 DUP(00H)
	DD	00H
	DD	01H
xdata$x	ENDS
;	COMDAT xdata$x
xdata$x	SEGMENT
__unwindtable$??$construct@PAVLivingEntity@@AAPAV1@@?$allocator@PAVLivingEntity@@@std@@QAEXPAPAVLivingEntity@@AAPAV2@@Z DD 0ffffffffH
	DD	FLAT:__unwindfunclet$??$construct@PAVLivingEntity@@AAPAV1@@?$allocator@PAVLivingEntity@@@std@@QAEXPAPAVLivingEntity@@AAPAV2@@Z$0
__ehfuncinfo$??$construct@PAVLivingEntity@@AAPAV1@@?$allocator@PAVLivingEntity@@@std@@QAEXPAPAVLivingEntity@@AAPAV2@@Z DD 019930522H
	DD	01H
	DD	FLAT:__unwindtable$??$construct@PAVLivingEntity@@AAPAV1@@?$allocator@PAVLivingEntity@@@std@@QAEXPAPAVLivingEntity@@AAPAV2@@Z
	DD	2 DUP(00H)
	DD	2 DUP(00H)
	DD	00H
	DD	01H
xdata$x	ENDS
;	COMDAT xdata$x
xdata$x	SEGMENT
__unwindtable$??$construct@PAVOnScreen@@AAPAV1@@?$allocator@PAVOnScreen@@@std@@QAEXPAPAVOnScreen@@AAPAV2@@Z DD 0ffffffffH
	DD	FLAT:__unwindfunclet$??$construct@PAVOnScreen@@AAPAV1@@?$allocator@PAVOnScreen@@@std@@QAEXPAPAVOnScreen@@AAPAV2@@Z$0
__ehfuncinfo$??$construct@PAVOnScreen@@AAPAV1@@?$allocator@PAVOnScreen@@@std@@QAEXPAPAVOnScreen@@AAPAV2@@Z DD 019930522H
	DD	01H
	DD	FLAT:__unwindtable$??$construct@PAVOnScreen@@AAPAV1@@?$allocator@PAVOnScreen@@@std@@QAEXPAPAVOnScreen@@AAPAV2@@Z
	DD	2 DUP(00H)
	DD	2 DUP(00H)
	DD	00H
	DD	01H
xdata$x	ENDS
;	COMDAT xdata$x
xdata$x	SEGMENT
__unwindtable$??$_Uninitialized_copy@V?$_Vector_const_iterator@V?$_Vector_val@U?$_Simple_types@PAVEnemy@@@std@@@std@@@std@@PAPAVEnemy@@U?$_Wrap_alloc@V?$allocator@PAVEnemy@@@std@@@2@@std@@YAPAPAVEnemy@@V?$_Vector_const_iterator@V?$_Vector_val@U?$_Simple_types@PAVEnemy@@@std@@@std@@@0@0PAPAV1@AAU?$_Wrap_alloc@V?$allocator@PAVEnemy@@@std@@@0@@Z DD 0ffffffffH
	DD	FLAT:__unwindfunclet$??$_Uninitialized_copy@V?$_Vector_const_iterator@V?$_Vector_val@U?$_Simple_types@PAVEnemy@@@std@@@std@@@std@@PAPAVEnemy@@U?$_Wrap_alloc@V?$allocator@PAVEnemy@@@std@@@2@@std@@YAPAPAVEnemy@@V?$_Vector_const_iterator@V?$_Vector_val@U?$_Simple_types@PAVEnemy@@@std@@@std@@@0@0PAPAV1@AAU?$_Wrap_alloc@V?$allocator@PAVEnemy@@@std@@@0@@Z$0
	DD	00H
	DD	FLAT:__unwindfunclet$??$_Uninitialized_copy@V?$_Vector_const_iterator@V?$_Vector_val@U?$_Simple_types@PAVEnemy@@@std@@@std@@@std@@PAPAVEnemy@@U?$_Wrap_alloc@V?$allocator@PAVEnemy@@@std@@@2@@std@@YAPAPAVEnemy@@V?$_Vector_const_iterator@V?$_Vector_val@U?$_Simple_types@PAVEnemy@@@std@@@std@@@0@0PAPAV1@AAU?$_Wrap_alloc@V?$allocator@PAVEnemy@@@std@@@0@@Z$1
	DD	01H
	DD	FLAT:__unwindfunclet$??$_Uninitialized_copy@V?$_Vector_const_iterator@V?$_Vector_val@U?$_Simple_types@PAVEnemy@@@std@@@std@@@std@@PAPAVEnemy@@U?$_Wrap_alloc@V?$allocator@PAVEnemy@@@std@@@2@@std@@YAPAPAVEnemy@@V?$_Vector_const_iterator@V?$_Vector_val@U?$_Simple_types@PAVEnemy@@@std@@@std@@@0@0PAPAV1@AAU?$_Wrap_alloc@V?$allocator@PAVEnemy@@@std@@@0@@Z$2
__ehfuncinfo$??$_Uninitialized_copy@V?$_Vector_const_iterator@V?$_Vector_val@U?$_Simple_types@PAVEnemy@@@std@@@std@@@std@@PAPAVEnemy@@U?$_Wrap_alloc@V?$allocator@PAVEnemy@@@std@@@2@@std@@YAPAPAVEnemy@@V?$_Vector_const_iterator@V?$_Vector_val@U?$_Simple_types@PAVEnemy@@@std@@@std@@@0@0PAPAV1@AAU?$_Wrap_alloc@V?$allocator@PAVEnemy@@@std@@@0@@Z DD 019930522H
	DD	03H
	DD	FLAT:__unwindtable$??$_Uninitialized_copy@V?$_Vector_const_iterator@V?$_Vector_val@U?$_Simple_types@PAVEnemy@@@std@@@std@@@std@@PAPAVEnemy@@U?$_Wrap_alloc@V?$allocator@PAVEnemy@@@std@@@2@@std@@YAPAPAVEnemy@@V?$_Vector_const_iterator@V?$_Vector_val@U?$_Simple_types@PAVEnemy@@@std@@@std@@@0@0PAPAV1@AAU?$_Wrap_alloc@V?$allocator@PAVEnemy@@@std@@@0@@Z
	DD	2 DUP(00H)
	DD	2 DUP(00H)
	DD	00H
	DD	01H
xdata$x	ENDS
;	COMDAT xdata$x
xdata$x	SEGMENT
__unwindtable$??$construct@U_Container_proxy@std@@U12@@?$allocator@U_Container_proxy@std@@@std@@QAEXPAU_Container_proxy@1@$$QAU21@@Z DD 0ffffffffH
	DD	FLAT:__unwindfunclet$??$construct@U_Container_proxy@std@@U12@@?$allocator@U_Container_proxy@std@@@std@@QAEXPAU_Container_proxy@1@$$QAU21@@Z$0
__ehfuncinfo$??$construct@U_Container_proxy@std@@U12@@?$allocator@U_Container_proxy@std@@@std@@QAEXPAU_Container_proxy@1@$$QAU21@@Z DD 019930522H
	DD	01H
	DD	FLAT:__unwindtable$??$construct@U_Container_proxy@std@@U12@@?$allocator@U_Container_proxy@std@@@std@@QAEXPAU_Container_proxy@1@$$QAU21@@Z
	DD	2 DUP(00H)
	DD	2 DUP(00H)
	DD	00H
	DD	01H
xdata$x	ENDS
;	COMDAT xdata$x
xdata$x	SEGMENT
